
dry2reg：     文件格式 elf64-littleriscv


Disassembly of section .text:

0000000000010000 <_ftext>:
   10000:	00015197          	auipc	gp,0x15
   10004:	c2018193          	addi	gp,gp,-992 # 24c20 <_gp>
   10008:	00014297          	auipc	t0,0x14
   1000c:	51828293          	addi	t0,t0,1304 # 24520 <__malloc_max_total_mem>
   10010:	00017317          	auipc	t1,0x17
   10014:	de830313          	addi	t1,t1,-536 # 26df8 <_end>
   10018:	0002b023          	sd	zero,0(t0)
   1001c:	00828293          	addi	t0,t0,8
   10020:	fe62ece3          	bltu	t0,t1,10018 <_ftext+0x18>
   10024:	00001517          	auipc	a0,0x1
   10028:	c2c50513          	addi	a0,a0,-980 # 10c50 <__libc_fini_array>
   1002c:	3e1000ef          	jal	10c0c <atexit>
   10030:	47d000ef          	jal	10cac <__libc_init_array>
   10034:	00012503          	lw	a0,0(sp)
   10038:	00810593          	addi	a1,sp,8
   1003c:	00000613          	li	a2,0
   10040:	2e0000ef          	jal	10320 <main>
   10044:	3dd0006f          	j	10c20 <exit>

0000000000010048 <_fini>:
   10048:	00008067          	ret

000000000001004c <deregister_tm_clones>:
   1004c:	00024537          	lui	a0,0x24
   10050:	000247b7          	lui	a5,0x24
   10054:	41850713          	addi	a4,a0,1048 # 24418 <__TMC_END__>
   10058:	41f78793          	addi	a5,a5,1055 # 2441f <__TMC_END__+0x7>
   1005c:	40e787b3          	sub	a5,a5,a4
   10060:	00e00713          	li	a4,14
   10064:	00f77c63          	bleu	a5,a4,1007c <deregister_tm_clones+0x30>
   10068:	00000337          	lui	t1,0x0
   1006c:	00030313          	mv	t1,t1
   10070:	00030663          	beqz	t1,1007c <deregister_tm_clones+0x30>
   10074:	41850513          	addi	a0,a0,1048
   10078:	00030067          	jr	t1
   1007c:	00008067          	ret

0000000000010080 <register_tm_clones>:
   10080:	00024537          	lui	a0,0x24
   10084:	000247b7          	lui	a5,0x24
   10088:	41850593          	addi	a1,a0,1048 # 24418 <__TMC_END__>
   1008c:	41878793          	addi	a5,a5,1048 # 24418 <__TMC_END__>
   10090:	40b787b3          	sub	a5,a5,a1
   10094:	4037d793          	srai	a5,a5,0x3
   10098:	03f7d593          	srli	a1,a5,0x3f
   1009c:	00f585b3          	add	a1,a1,a5
   100a0:	4015d593          	srai	a1,a1,0x1
   100a4:	00058c63          	beqz	a1,100bc <register_tm_clones+0x3c>
   100a8:	00000337          	lui	t1,0x0
   100ac:	00030313          	mv	t1,t1
   100b0:	00030663          	beqz	t1,100bc <register_tm_clones+0x3c>
   100b4:	41850513          	addi	a0,a0,1048
   100b8:	00030067          	jr	t1
   100bc:	00008067          	ret

00000000000100c0 <__do_global_dtors_aux>:
   100c0:	ff010113          	addi	sp,sp,-16
   100c4:	00813023          	sd	s0,0(sp)
   100c8:	9301c783          	lbu	a5,-1744(gp) # 24550 <_bss_start>
   100cc:	00113423          	sd	ra,8(sp)
   100d0:	02079663          	bnez	a5,100fc <__do_global_dtors_aux+0x3c>
   100d4:	f79ff0ef          	jal	1004c <deregister_tm_clones>
   100d8:	000007b7          	lui	a5,0x0
   100dc:	00078793          	mv	a5,a5
   100e0:	00078a63          	beqz	a5,100f4 <__do_global_dtors_aux+0x34>
   100e4:	00022537          	lui	a0,0x22
   100e8:	d9050513          	addi	a0,a0,-624 # 21d90 <__fini_array_end>
   100ec:	ffff0317          	auipc	t1,0xffff0
   100f0:	f14300e7          	jalr	t1,-236 # 0 <_ftext-0x10000>
   100f4:	00100793          	li	a5,1
   100f8:	92f18823          	sb	a5,-1744(gp) # 24550 <_bss_start>
   100fc:	00813083          	ld	ra,8(sp)
   10100:	00013403          	ld	s0,0(sp)
   10104:	01010113          	addi	sp,sp,16
   10108:	00008067          	ret

000000000001010c <frame_dummy>:
   1010c:	ff010113          	addi	sp,sp,-16
   10110:	000007b7          	lui	a5,0x0
   10114:	00113423          	sd	ra,8(sp)
   10118:	00078793          	mv	a5,a5
   1011c:	00078c63          	beqz	a5,10134 <frame_dummy+0x28>
   10120:	00022537          	lui	a0,0x22
   10124:	93818593          	addi	a1,gp,-1736 # 24558 <object.3092>
   10128:	d9050513          	addi	a0,a0,-624 # 21d90 <__fini_array_end>
   1012c:	ffff0317          	auipc	t1,0xffff0
   10130:	ed4300e7          	jalr	t1,-300 # 0 <_ftext-0x10000>
   10134:	000237b7          	lui	a5,0x23
   10138:	41878513          	addi	a0,a5,1048 # 23418 <__JCR_END__>
   1013c:	00053783          	ld	a5,0(a0)
   10140:	00079863          	bnez	a5,10150 <frame_dummy+0x44>
   10144:	00813083          	ld	ra,8(sp)
   10148:	01010113          	addi	sp,sp,16
   1014c:	f35ff06f          	j	10080 <register_tm_clones>
   10150:	000007b7          	lui	a5,0x0
   10154:	00078793          	mv	a5,a5
   10158:	fe0786e3          	beqz	a5,10144 <frame_dummy+0x38>
   1015c:	000780e7          	jalr	a5
   10160:	fe5ff06f          	j	10144 <frame_dummy+0x38>

0000000000010164 <Proc_2>:
   10164:	000277b7          	lui	a5,0x27
   10168:	cfc7c703          	lbu	a4,-772(a5) # 26cfc <Ch_1_Glob>
   1016c:	04100793          	li	a5,65
   10170:	00f71e63          	bne	a4,a5,1018c <Proc_2+0x28>
   10174:	00052783          	lw	a5,0(a0)
   10178:	0097879b          	addiw	a5,a5,9
   1017c:	00027737          	lui	a4,0x27
   10180:	cf872703          	lw	a4,-776(a4) # 26cf8 <Int_Glob>
   10184:	40e787bb          	subw	a5,a5,a4
   10188:	00f52023          	sw	a5,0(a0)
   1018c:	00008067          	ret

0000000000010190 <Proc_3>:
   10190:	ff010113          	addi	sp,sp,-16
   10194:	00113423          	sd	ra,8(sp)
   10198:	000277b7          	lui	a5,0x27
   1019c:	d007b783          	ld	a5,-768(a5) # 26d00 <Ptr_Glob>
   101a0:	00078663          	beqz	a5,101ac <Proc_3+0x1c>
   101a4:	0007b783          	ld	a5,0(a5)
   101a8:	00f53023          	sd	a5,0(a0)
   101ac:	000277b7          	lui	a5,0x27
   101b0:	d007b603          	ld	a2,-768(a5) # 26d00 <Ptr_Glob>
   101b4:	01060613          	addi	a2,a2,16
   101b8:	000277b7          	lui	a5,0x27
   101bc:	cf87a583          	lw	a1,-776(a5) # 26cf8 <Int_Glob>
   101c0:	00a00513          	li	a0,10
   101c4:	105000ef          	jal	10ac8 <Proc_7>
   101c8:	00813083          	ld	ra,8(sp)
   101cc:	01010113          	addi	sp,sp,16
   101d0:	00008067          	ret

00000000000101d4 <Proc_1>:
   101d4:	fe010113          	addi	sp,sp,-32
   101d8:	00113c23          	sd	ra,24(sp)
   101dc:	00813823          	sd	s0,16(sp)
   101e0:	00913423          	sd	s1,8(sp)
   101e4:	00050493          	mv	s1,a0
   101e8:	00053403          	ld	s0,0(a0)
   101ec:	000277b7          	lui	a5,0x27
   101f0:	d007b783          	ld	a5,-768(a5) # 26d00 <Ptr_Glob>
   101f4:	0007b703          	ld	a4,0(a5)
   101f8:	00e43023          	sd	a4,0(s0)
   101fc:	0087b703          	ld	a4,8(a5)
   10200:	00e43423          	sd	a4,8(s0)
   10204:	0107b703          	ld	a4,16(a5)
   10208:	00e43823          	sd	a4,16(s0)
   1020c:	0187b703          	ld	a4,24(a5)
   10210:	00e43c23          	sd	a4,24(s0)
   10214:	0207b703          	ld	a4,32(a5)
   10218:	02e43023          	sd	a4,32(s0)
   1021c:	0287b703          	ld	a4,40(a5)
   10220:	02e43423          	sd	a4,40(s0)
   10224:	0307b783          	ld	a5,48(a5)
   10228:	02f43823          	sd	a5,48(s0)
   1022c:	00500793          	li	a5,5
   10230:	00f52823          	sw	a5,16(a0)
   10234:	00f42823          	sw	a5,16(s0)
   10238:	00053783          	ld	a5,0(a0)
   1023c:	00f43023          	sd	a5,0(s0)
   10240:	00040513          	mv	a0,s0
   10244:	f4dff0ef          	jal	10190 <Proc_3>
   10248:	00842783          	lw	a5,8(s0)
   1024c:	02079e63          	bnez	a5,10288 <Proc_1+0xb4>
   10250:	00600793          	li	a5,6
   10254:	00f42823          	sw	a5,16(s0)
   10258:	00c40593          	addi	a1,s0,12
   1025c:	00c4a503          	lw	a0,12(s1)
   10260:	7f4000ef          	jal	10a54 <Proc_6>
   10264:	000277b7          	lui	a5,0x27
   10268:	d007b783          	ld	a5,-768(a5) # 26d00 <Ptr_Glob>
   1026c:	0007b783          	ld	a5,0(a5)
   10270:	00f43023          	sd	a5,0(s0)
   10274:	01040613          	addi	a2,s0,16
   10278:	00a00593          	li	a1,10
   1027c:	01042503          	lw	a0,16(s0)
   10280:	049000ef          	jal	10ac8 <Proc_7>
   10284:	0400006f          	j	102c4 <Proc_1+0xf0>
   10288:	0004b783          	ld	a5,0(s1)
   1028c:	0007b703          	ld	a4,0(a5)
   10290:	00e4b023          	sd	a4,0(s1)
   10294:	0087b703          	ld	a4,8(a5)
   10298:	00e4b423          	sd	a4,8(s1)
   1029c:	0107b703          	ld	a4,16(a5)
   102a0:	00e4b823          	sd	a4,16(s1)
   102a4:	0187b703          	ld	a4,24(a5)
   102a8:	00e4bc23          	sd	a4,24(s1)
   102ac:	0207b703          	ld	a4,32(a5)
   102b0:	02e4b023          	sd	a4,32(s1)
   102b4:	0287b703          	ld	a4,40(a5)
   102b8:	02e4b423          	sd	a4,40(s1)
   102bc:	0307b783          	ld	a5,48(a5)
   102c0:	02f4b823          	sd	a5,48(s1)
   102c4:	01813083          	ld	ra,24(sp)
   102c8:	01013403          	ld	s0,16(sp)
   102cc:	00813483          	ld	s1,8(sp)
   102d0:	02010113          	addi	sp,sp,32
   102d4:	00008067          	ret

00000000000102d8 <Proc_4>:
   102d8:	000276b7          	lui	a3,0x27
   102dc:	000277b7          	lui	a5,0x27
   102e0:	cfc7c783          	lbu	a5,-772(a5) # 26cfc <Ch_1_Glob>
   102e4:	fbf7879b          	addiw	a5,a5,-65
   102e8:	0017b793          	seqz	a5,a5
   102ec:	dd06a703          	lw	a4,-560(a3) # 26dd0 <Bool_Glob>
   102f0:	00e7e7b3          	or	a5,a5,a4
   102f4:	dcf6a823          	sw	a5,-560(a3)
   102f8:	04200713          	li	a4,66
   102fc:	000277b7          	lui	a5,0x27
   10300:	cee78ea3          	sb	a4,-771(a5) # 26cfd <Ch_2_Glob>
   10304:	00008067          	ret

0000000000010308 <Proc_5>:
   10308:	04100713          	li	a4,65
   1030c:	000277b7          	lui	a5,0x27
   10310:	cee78e23          	sb	a4,-772(a5) # 26cfc <Ch_1_Glob>
   10314:	000277b7          	lui	a5,0x27
   10318:	dc07a823          	sw	zero,-560(a5) # 26dd0 <Bool_Glob>
   1031c:	00008067          	ret

0000000000010320 <main>:
   10320:	f3010113          	addi	sp,sp,-208
   10324:	0c113423          	sd	ra,200(sp)
   10328:	0c813023          	sd	s0,192(sp)
   1032c:	0a913c23          	sd	s1,184(sp)
   10330:	0b213823          	sd	s2,176(sp)
   10334:	0b313423          	sd	s3,168(sp)
   10338:	0b413023          	sd	s4,160(sp)
   1033c:	09513c23          	sd	s5,152(sp)
   10340:	09613823          	sd	s6,144(sp)
   10344:	09713423          	sd	s7,136(sp)
   10348:	09813023          	sd	s8,128(sp)
   1034c:	07913c23          	sd	s9,120(sp)
   10350:	07a13823          	sd	s10,112(sp)
   10354:	07b13423          	sd	s11,104(sp)
   10358:	03800513          	li	a0,56
   1035c:	1f1000ef          	jal	10d4c <malloc>
   10360:	00050493          	mv	s1,a0
   10364:	000277b7          	lui	a5,0x27
   10368:	cea7b823          	sd	a0,-784(a5) # 26cf0 <Next_Ptr_Glob>
   1036c:	03800513          	li	a0,56
   10370:	1dd000ef          	jal	10d4c <malloc>
   10374:	000277b7          	lui	a5,0x27
   10378:	d0a7b023          	sd	a0,-768(a5) # 26d00 <Ptr_Glob>
   1037c:	00953023          	sd	s1,0(a0)
   10380:	00052423          	sw	zero,8(a0)
   10384:	00200793          	li	a5,2
   10388:	00f52623          	sw	a5,12(a0)
   1038c:	02800793          	li	a5,40
   10390:	00f52823          	sw	a5,16(a0)
   10394:	000217b7          	lui	a5,0x21
   10398:	6787ae03          	lw	t3,1656(a5) # 21678 <zeroes.4123+0x10>
   1039c:	67878793          	addi	a5,a5,1656
   103a0:	0047a303          	lw	t1,4(a5)
   103a4:	0087a883          	lw	a7,8(a5)
   103a8:	00c7a803          	lw	a6,12(a5)
   103ac:	0107a583          	lw	a1,16(a5)
   103b0:	0147a603          	lw	a2,20(a5)
   103b4:	0187a683          	lw	a3,24(a5)
   103b8:	01c52a23          	sw	t3,20(a0)
   103bc:	00652c23          	sw	t1,24(a0)
   103c0:	01152e23          	sw	a7,28(a0)
   103c4:	03052023          	sw	a6,32(a0)
   103c8:	02b52223          	sw	a1,36(a0)
   103cc:	02c52423          	sw	a2,40(a0)
   103d0:	02d52623          	sw	a3,44(a0)
   103d4:	01c7d683          	lhu	a3,28(a5)
   103d8:	02d51823          	sh	a3,48(a0)
   103dc:	01e7c783          	lbu	a5,30(a5)
   103e0:	02f50923          	sb	a5,50(a0)
   103e4:	000227b7          	lui	a5,0x22
   103e8:	c687b703          	ld	a4,-920(a5) # 21c68 <zeroes.4123+0x600>
   103ec:	02e13823          	sd	a4,48(sp)
   103f0:	c6878793          	addi	a5,a5,-920
   103f4:	0087b703          	ld	a4,8(a5)
   103f8:	02e13c23          	sd	a4,56(sp)
   103fc:	0107b703          	ld	a4,16(a5)
   10400:	04e13023          	sd	a4,64(sp)
   10404:	0187a703          	lw	a4,24(a5)
   10408:	04e12423          	sw	a4,72(sp)
   1040c:	01c7d703          	lhu	a4,28(a5)
   10410:	04e11623          	sh	a4,76(sp)
   10414:	01e7c783          	lbu	a5,30(a5)
   10418:	04f10723          	sb	a5,78(sp)
   1041c:	00a00493          	li	s1,10
   10420:	0091aa23          	sw	s1,20(gp) # 24c34 <_gp+0x14>
   10424:	00048513          	mv	a0,s1
   10428:	150010ef          	jal	11578 <putchar>
   1042c:	00021537          	lui	a0,0x21
   10430:	69850513          	addi	a0,a0,1688 # 21698 <zeroes.4123+0x30>
   10434:	368010ef          	jal	1179c <puts>
   10438:	00048513          	mv	a0,s1
   1043c:	13c010ef          	jal	11578 <putchar>
   10440:	8081a783          	lw	a5,-2040(gp) # 24428 <Reg>
   10444:	00078e63          	beqz	a5,10460 <main+0x140>
   10448:	00021537          	lui	a0,0x21
   1044c:	6c850513          	addi	a0,a0,1736 # 216c8 <zeroes.4123+0x60>
   10450:	34c010ef          	jal	1179c <puts>
   10454:	00048513          	mv	a0,s1
   10458:	120010ef          	jal	11578 <putchar>
   1045c:	0180006f          	j	10474 <main+0x154>
   10460:	00021537          	lui	a0,0x21
   10464:	6f850513          	addi	a0,a0,1784 # 216f8 <zeroes.4123+0x90>
   10468:	334010ef          	jal	1179c <puts>
   1046c:	00a00513          	li	a0,10
   10470:	108010ef          	jal	11578 <putchar>
   10474:	00021537          	lui	a0,0x21
   10478:	72850513          	addi	a0,a0,1832 # 21728 <zeroes.4123+0xc0>
   1047c:	0a4010ef          	jal	11520 <printf>
   10480:	00c10593          	addi	a1,sp,12
   10484:	00021537          	lui	a0,0x21
   10488:	76050513          	addi	a0,a0,1888 # 21760 <zeroes.4123+0xf8>
   1048c:	31c010ef          	jal	117a8 <scanf>
   10490:	00c12b83          	lw	s7,12(sp)
   10494:	00a00513          	li	a0,10
   10498:	0e0010ef          	jal	11578 <putchar>
   1049c:	000b8593          	mv	a1,s7
   104a0:	00021537          	lui	a0,0x21
   104a4:	76850513          	addi	a0,a0,1896 # 21768 <zeroes.4123+0x100>
   104a8:	078010ef          	jal	11520 <printf>
   104ac:	000274b7          	lui	s1,0x27
   104b0:	dd848513          	addi	a0,s1,-552 # 26dd8 <time_info>
   104b4:	0e0100ef          	jal	20594 <times>
   104b8:	dd84b703          	ld	a4,-552(s1)
   104bc:	9ae1b823          	sd	a4,-1616(gp) # 245d0 <Begin_Time>
   104c0:	19705a63          	blez	s7,10654 <main+0x334>
   104c4:	00100a13          	li	s4,1
   104c8:	00022d37          	lui	s10,0x22
   104cc:	c88d3d83          	ld	s11,-888(s10) # 21c88 <zeroes.4123+0x620>
   104d0:	00300493          	li	s1,3
   104d4:	00022c37          	lui	s8,0x22
   104d8:	ca8c3c83          	ld	s9,-856(s8) # 21ca8 <zeroes.4123+0x640>
   104dc:	e2dff0ef          	jal	10308 <Proc_5>
   104e0:	df9ff0ef          	jal	102d8 <Proc_4>
   104e4:	00200413          	li	s0,2
   104e8:	04812e23          	sw	s0,92(sp)
   104ec:	01b13823          	sd	s11,16(sp)
   104f0:	c88d0793          	addi	a5,s10,-888
   104f4:	0087b703          	ld	a4,8(a5)
   104f8:	00e13c23          	sd	a4,24(sp)
   104fc:	0107b703          	ld	a4,16(a5)
   10500:	02e13023          	sd	a4,32(sp)
   10504:	0187a703          	lw	a4,24(a5)
   10508:	02e12423          	sw	a4,40(sp)
   1050c:	01c7d703          	lhu	a4,28(a5)
   10510:	02e11623          	sh	a4,44(sp)
   10514:	01e7c783          	lbu	a5,30(a5)
   10518:	02f10723          	sb	a5,46(sp)
   1051c:	00100793          	li	a5,1
   10520:	04f12a23          	sw	a5,84(sp)
   10524:	01010593          	addi	a1,sp,16
   10528:	03010513          	addi	a0,sp,48
   1052c:	664000ef          	jal	10b90 <Func_2>
   10530:	00153513          	seqz	a0,a0
   10534:	000277b7          	lui	a5,0x27
   10538:	dca7a823          	sw	a0,-560(a5) # 26dd0 <Bool_Glob>
   1053c:	05c12503          	lw	a0,92(sp)
   10540:	02a44863          	blt	s0,a0,10570 <main+0x250>
   10544:	0025179b          	slliw	a5,a0,0x2
   10548:	00a787bb          	addw	a5,a5,a0
   1054c:	ffd7879b          	addiw	a5,a5,-3
   10550:	04f12c23          	sw	a5,88(sp)
   10554:	05810613          	addi	a2,sp,88
   10558:	00048593          	mv	a1,s1
   1055c:	56c000ef          	jal	10ac8 <Proc_7>
   10560:	05c12503          	lw	a0,92(sp)
   10564:	0015051b          	addiw	a0,a0,1
   10568:	04a12e23          	sw	a0,92(sp)
   1056c:	fca45ce3          	ble	a0,s0,10544 <main+0x224>
   10570:	05812683          	lw	a3,88(sp)
   10574:	00050613          	mv	a2,a0
   10578:	9b818593          	addi	a1,gp,-1608 # 245d8 <Arr_2_Glob>
   1057c:	000277b7          	lui	a5,0x27
   10580:	d0878513          	addi	a0,a5,-760 # 26d08 <Arr_1_Glob>
   10584:	554000ef          	jal	10ad8 <Proc_8>
   10588:	000277b7          	lui	a5,0x27
   1058c:	d007b503          	ld	a0,-768(a5) # 26d00 <Ptr_Glob>
   10590:	c45ff0ef          	jal	101d4 <Proc_1>
   10594:	000277b7          	lui	a5,0x27
   10598:	cfd7c703          	lbu	a4,-771(a5) # 26cfd <Ch_2_Glob>
   1059c:	00048a93          	mv	s5,s1
   105a0:	04000793          	li	a5,64
   105a4:	06e7fe63          	bleu	a4,a5,10620 <main+0x300>
   105a8:	04100413          	li	s0,65
   105ac:	04300993          	li	s3,67
   105b0:	00027b37          	lui	s6,0x27
   105b4:	00027937          	lui	s2,0x27
   105b8:	00098593          	mv	a1,s3
   105bc:	00040513          	mv	a0,s0
   105c0:	5ac000ef          	jal	10b6c <Func_1>
   105c4:	05412783          	lw	a5,84(sp)
   105c8:	04f51463          	bne	a0,a5,10610 <main+0x2f0>
   105cc:	05410593          	addi	a1,sp,84
   105d0:	00000513          	li	a0,0
   105d4:	480000ef          	jal	10a54 <Proc_6>
   105d8:	01913823          	sd	s9,16(sp)
   105dc:	ca8c0793          	addi	a5,s8,-856
   105e0:	0087b703          	ld	a4,8(a5)
   105e4:	00e13c23          	sd	a4,24(sp)
   105e8:	0107b703          	ld	a4,16(a5)
   105ec:	02e13023          	sd	a4,32(sp)
   105f0:	0187a703          	lw	a4,24(a5)
   105f4:	02e12423          	sw	a4,40(sp)
   105f8:	01c7d703          	lhu	a4,28(a5)
   105fc:	02e11623          	sh	a4,44(sp)
   10600:	01e7c783          	lbu	a5,30(a5)
   10604:	02f10723          	sb	a5,46(sp)
   10608:	cf4b2c23          	sw	s4,-776(s6) # 26cf8 <Int_Glob>
   1060c:	000a0a93          	mv	s5,s4
   10610:	0014041b          	addiw	s0,s0,1
   10614:	0ff47413          	andi	s0,s0,255
   10618:	cfd94783          	lbu	a5,-771(s2) # 26cfd <Ch_2_Glob>
   1061c:	f887fee3          	bleu	s0,a5,105b8 <main+0x298>
   10620:	05c12783          	lw	a5,92(sp)
   10624:	02fa8abb          	mulw	s5,s5,a5
   10628:	05812903          	lw	s2,88(sp)
   1062c:	032ac43b          	divw	s0,s5,s2
   10630:	04812e23          	sw	s0,92(sp)
   10634:	05c10513          	addi	a0,sp,92
   10638:	b2dff0ef          	jal	10164 <Proc_2>
   1063c:	001a0a1b          	addiw	s4,s4,1
   10640:	e94bdee3          	ble	s4,s7,104dc <main+0x1bc>
   10644:	412a8abb          	subw	s5,s5,s2
   10648:	003a979b          	slliw	a5,s5,0x3
   1064c:	41578abb          	subw	s5,a5,s5
   10650:	408a843b          	subw	s0,s5,s0
   10654:	000274b7          	lui	s1,0x27
   10658:	dd848513          	addi	a0,s1,-552 # 26dd8 <time_info>
   1065c:	7390f0ef          	jal	20594 <times>
   10660:	000279b7          	lui	s3,0x27
   10664:	dd84b783          	ld	a5,-552(s1)
   10668:	cef9b423          	sd	a5,-792(s3) # 26ce8 <End_Time>
   1066c:	00021537          	lui	a0,0x21
   10670:	79850513          	addi	a0,a0,1944 # 21798 <zeroes.4123+0x130>
   10674:	128010ef          	jal	1179c <puts>
   10678:	00a00513          	li	a0,10
   1067c:	6fd000ef          	jal	11578 <putchar>
   10680:	00021537          	lui	a0,0x21
   10684:	7a850513          	addi	a0,a0,1960 # 217a8 <zeroes.4123+0x140>
   10688:	114010ef          	jal	1179c <puts>
   1068c:	00a00513          	li	a0,10
   10690:	6e9000ef          	jal	11578 <putchar>
   10694:	000277b7          	lui	a5,0x27
   10698:	cf87a583          	lw	a1,-776(a5) # 26cf8 <Int_Glob>
   1069c:	00021537          	lui	a0,0x21
   106a0:	7e050513          	addi	a0,a0,2016 # 217e0 <zeroes.4123+0x178>
   106a4:	67d000ef          	jal	11520 <printf>
   106a8:	00500593          	li	a1,5
   106ac:	000224b7          	lui	s1,0x22
   106b0:	80048513          	addi	a0,s1,-2048 # 21800 <zeroes.4123+0x198>
   106b4:	66d000ef          	jal	11520 <printf>
   106b8:	000277b7          	lui	a5,0x27
   106bc:	dd07a583          	lw	a1,-560(a5) # 26dd0 <Bool_Glob>
   106c0:	00022537          	lui	a0,0x22
   106c4:	82050513          	addi	a0,a0,-2016 # 21820 <zeroes.4123+0x1b8>
   106c8:	659000ef          	jal	11520 <printf>
   106cc:	00100593          	li	a1,1
   106d0:	80048513          	addi	a0,s1,-2048
   106d4:	64d000ef          	jal	11520 <printf>
   106d8:	000277b7          	lui	a5,0x27
   106dc:	cfc7c583          	lbu	a1,-772(a5) # 26cfc <Ch_1_Glob>
   106e0:	00022537          	lui	a0,0x22
   106e4:	84050513          	addi	a0,a0,-1984 # 21840 <zeroes.4123+0x1d8>
   106e8:	639000ef          	jal	11520 <printf>
   106ec:	04100593          	li	a1,65
   106f0:	00022937          	lui	s2,0x22
   106f4:	86090513          	addi	a0,s2,-1952 # 21860 <zeroes.4123+0x1f8>
   106f8:	629000ef          	jal	11520 <printf>
   106fc:	000277b7          	lui	a5,0x27
   10700:	cfd7c583          	lbu	a1,-771(a5) # 26cfd <Ch_2_Glob>
   10704:	00022537          	lui	a0,0x22
   10708:	88050513          	addi	a0,a0,-1920 # 21880 <zeroes.4123+0x218>
   1070c:	615000ef          	jal	11520 <printf>
   10710:	04200593          	li	a1,66
   10714:	86090513          	addi	a0,s2,-1952
   10718:	609000ef          	jal	11520 <printf>
   1071c:	000277b7          	lui	a5,0x27
   10720:	d287a583          	lw	a1,-728(a5) # 26d28 <Arr_1_Glob+0x20>
   10724:	00022537          	lui	a0,0x22
   10728:	8a050513          	addi	a0,a0,-1888 # 218a0 <zeroes.4123+0x238>
   1072c:	5f5000ef          	jal	11520 <printf>
   10730:	00700593          	li	a1,7
   10734:	80048513          	addi	a0,s1,-2048
   10738:	5e9000ef          	jal	11520 <printf>
   1073c:	0141a583          	lw	a1,20(gp) # 24c34 <_gp+0x14>
   10740:	00022537          	lui	a0,0x22
   10744:	8c050513          	addi	a0,a0,-1856 # 218c0 <zeroes.4123+0x258>
   10748:	5d9000ef          	jal	11520 <printf>
   1074c:	00022537          	lui	a0,0x22
   10750:	8e050513          	addi	a0,a0,-1824 # 218e0 <zeroes.4123+0x278>
   10754:	048010ef          	jal	1179c <puts>
   10758:	00022537          	lui	a0,0x22
   1075c:	91050513          	addi	a0,a0,-1776 # 21910 <zeroes.4123+0x2a8>
   10760:	03c010ef          	jal	1179c <puts>
   10764:	00027937          	lui	s2,0x27
   10768:	d0093783          	ld	a5,-768(s2) # 26d00 <Ptr_Glob>
   1076c:	0007a583          	lw	a1,0(a5)
   10770:	00022d37          	lui	s10,0x22
   10774:	920d0513          	addi	a0,s10,-1760 # 21920 <zeroes.4123+0x2b8>
   10778:	5a9000ef          	jal	11520 <printf>
   1077c:	00022537          	lui	a0,0x22
   10780:	94050513          	addi	a0,a0,-1728 # 21940 <zeroes.4123+0x2d8>
   10784:	018010ef          	jal	1179c <puts>
   10788:	d0093783          	ld	a5,-768(s2)
   1078c:	0087a583          	lw	a1,8(a5)
   10790:	00022cb7          	lui	s9,0x22
   10794:	970c8513          	addi	a0,s9,-1680 # 21970 <zeroes.4123+0x308>
   10798:	589000ef          	jal	11520 <printf>
   1079c:	00000593          	li	a1,0
   107a0:	80048513          	addi	a0,s1,-2048
   107a4:	57d000ef          	jal	11520 <printf>
   107a8:	d0093783          	ld	a5,-768(s2)
   107ac:	00c7a583          	lw	a1,12(a5)
   107b0:	00022c37          	lui	s8,0x22
   107b4:	990c0513          	addi	a0,s8,-1648 # 21990 <zeroes.4123+0x328>
   107b8:	569000ef          	jal	11520 <printf>
   107bc:	00200593          	li	a1,2
   107c0:	80048513          	addi	a0,s1,-2048
   107c4:	55d000ef          	jal	11520 <printf>
   107c8:	d0093783          	ld	a5,-768(s2)
   107cc:	0107a583          	lw	a1,16(a5)
   107d0:	00022b37          	lui	s6,0x22
   107d4:	9b0b0513          	addi	a0,s6,-1616 # 219b0 <zeroes.4123+0x348>
   107d8:	549000ef          	jal	11520 <printf>
   107dc:	01100593          	li	a1,17
   107e0:	80048513          	addi	a0,s1,-2048
   107e4:	53d000ef          	jal	11520 <printf>
   107e8:	d0093583          	ld	a1,-768(s2)
   107ec:	01458593          	addi	a1,a1,20
   107f0:	00022ab7          	lui	s5,0x22
   107f4:	9d0a8513          	addi	a0,s5,-1584 # 219d0 <zeroes.4123+0x368>
   107f8:	529000ef          	jal	11520 <printf>
   107fc:	00022a37          	lui	s4,0x22
   10800:	9f0a0513          	addi	a0,s4,-1552 # 219f0 <zeroes.4123+0x388>
   10804:	799000ef          	jal	1179c <puts>
   10808:	00022537          	lui	a0,0x22
   1080c:	a2850513          	addi	a0,a0,-1496 # 21a28 <zeroes.4123+0x3c0>
   10810:	78d000ef          	jal	1179c <puts>
   10814:	00027937          	lui	s2,0x27
   10818:	cf093783          	ld	a5,-784(s2) # 26cf0 <Next_Ptr_Glob>
   1081c:	0007a583          	lw	a1,0(a5)
   10820:	920d0513          	addi	a0,s10,-1760
   10824:	4fd000ef          	jal	11520 <printf>
   10828:	00022537          	lui	a0,0x22
   1082c:	a3850513          	addi	a0,a0,-1480 # 21a38 <zeroes.4123+0x3d0>
   10830:	76d000ef          	jal	1179c <puts>
   10834:	cf093783          	ld	a5,-784(s2)
   10838:	0087a583          	lw	a1,8(a5)
   1083c:	970c8513          	addi	a0,s9,-1680
   10840:	4e1000ef          	jal	11520 <printf>
   10844:	00000593          	li	a1,0
   10848:	80048513          	addi	a0,s1,-2048
   1084c:	4d5000ef          	jal	11520 <printf>
   10850:	cf093783          	ld	a5,-784(s2)
   10854:	00c7a583          	lw	a1,12(a5)
   10858:	990c0513          	addi	a0,s8,-1648
   1085c:	4c5000ef          	jal	11520 <printf>
   10860:	00100593          	li	a1,1
   10864:	80048513          	addi	a0,s1,-2048
   10868:	4b9000ef          	jal	11520 <printf>
   1086c:	cf093783          	ld	a5,-784(s2)
   10870:	0107a583          	lw	a1,16(a5)
   10874:	9b0b0513          	addi	a0,s6,-1616
   10878:	4a9000ef          	jal	11520 <printf>
   1087c:	01200593          	li	a1,18
   10880:	80048513          	addi	a0,s1,-2048
   10884:	49d000ef          	jal	11520 <printf>
   10888:	cf093583          	ld	a1,-784(s2)
   1088c:	01458593          	addi	a1,a1,20
   10890:	9d0a8513          	addi	a0,s5,-1584
   10894:	48d000ef          	jal	11520 <printf>
   10898:	9f0a0513          	addi	a0,s4,-1552
   1089c:	701000ef          	jal	1179c <puts>
   108a0:	05c12583          	lw	a1,92(sp)
   108a4:	00022537          	lui	a0,0x22
   108a8:	a7850513          	addi	a0,a0,-1416 # 21a78 <zeroes.4123+0x410>
   108ac:	475000ef          	jal	11520 <printf>
   108b0:	00500593          	li	a1,5
   108b4:	80048513          	addi	a0,s1,-2048
   108b8:	469000ef          	jal	11520 <printf>
   108bc:	00040593          	mv	a1,s0
   108c0:	00022537          	lui	a0,0x22
   108c4:	a9850513          	addi	a0,a0,-1384 # 21a98 <zeroes.4123+0x430>
   108c8:	459000ef          	jal	11520 <printf>
   108cc:	00d00593          	li	a1,13
   108d0:	80048513          	addi	a0,s1,-2048
   108d4:	44d000ef          	jal	11520 <printf>
   108d8:	05812583          	lw	a1,88(sp)
   108dc:	00022537          	lui	a0,0x22
   108e0:	ab850513          	addi	a0,a0,-1352 # 21ab8 <zeroes.4123+0x450>
   108e4:	43d000ef          	jal	11520 <printf>
   108e8:	00700593          	li	a1,7
   108ec:	80048513          	addi	a0,s1,-2048
   108f0:	431000ef          	jal	11520 <printf>
   108f4:	05412583          	lw	a1,84(sp)
   108f8:	00022537          	lui	a0,0x22
   108fc:	ad850513          	addi	a0,a0,-1320 # 21ad8 <zeroes.4123+0x470>
   10900:	421000ef          	jal	11520 <printf>
   10904:	00100593          	li	a1,1
   10908:	80048513          	addi	a0,s1,-2048
   1090c:	415000ef          	jal	11520 <printf>
   10910:	03010593          	addi	a1,sp,48
   10914:	00022537          	lui	a0,0x22
   10918:	af850513          	addi	a0,a0,-1288 # 21af8 <zeroes.4123+0x490>
   1091c:	405000ef          	jal	11520 <printf>
   10920:	00022537          	lui	a0,0x22
   10924:	b1850513          	addi	a0,a0,-1256 # 21b18 <zeroes.4123+0x4b0>
   10928:	675000ef          	jal	1179c <puts>
   1092c:	01010593          	addi	a1,sp,16
   10930:	00022537          	lui	a0,0x22
   10934:	b5050513          	addi	a0,a0,-1200 # 21b50 <zeroes.4123+0x4e8>
   10938:	3e9000ef          	jal	11520 <printf>
   1093c:	00022537          	lui	a0,0x22
   10940:	b7050513          	addi	a0,a0,-1168 # 21b70 <zeroes.4123+0x508>
   10944:	659000ef          	jal	1179c <puts>
   10948:	00a00513          	li	a0,10
   1094c:	42d000ef          	jal	11578 <putchar>
   10950:	ce89b783          	ld	a5,-792(s3)
   10954:	9b01b703          	ld	a4,-1616(gp) # 245d0 <Begin_Time>
   10958:	40e787b3          	sub	a5,a5,a4
   1095c:	9af1b423          	sd	a5,-1624(gp) # 245c8 <User_Time>
   10960:	07700713          	li	a4,119
   10964:	02f74463          	blt	a4,a5,1098c <main+0x66c>
   10968:	00022537          	lui	a0,0x22
   1096c:	ba850513          	addi	a0,a0,-1112 # 21ba8 <zeroes.4123+0x540>
   10970:	62d000ef          	jal	1179c <puts>
   10974:	00022537          	lui	a0,0x22
   10978:	be050513          	addi	a0,a0,-1056 # 21be0 <zeroes.4123+0x578>
   1097c:	621000ef          	jal	1179c <puts>
   10980:	00a00513          	li	a0,10
   10984:	3f5000ef          	jal	11578 <putchar>
   10988:	08c0006f          	j	10a14 <main+0x6f4>
   1098c:	d027f753          	fcvt.s.l	fa4,a5
   10990:	d00bf6d3          	fcvt.s.w	fa3,s7
   10994:	000247b7          	lui	a5,0x24
   10998:	4787a787          	flw	fa5,1144(a5) # 24478 <__wctomb+0x10>
   1099c:	10f6f7d3          	fmul.s	fa5,fa3,fa5
   109a0:	420706d3          	fcvt.d.s	fa3,fa4
   109a4:	000247b7          	lui	a5,0x24
   109a8:	4707b607          	fld	fa2,1136(a5) # 24470 <__wctomb+0x8>
   109ac:	12c6f6d3          	fmul.d	fa3,fa3,fa2
   109b0:	42078653          	fcvt.d.s	fa2,fa5
   109b4:	1ac6f6d3          	fdiv.d	fa3,fa3,fa2
   109b8:	4016f6d3          	fcvt.s.d	fa3,fa3
   109bc:	9ad1a027          	fsw	fa3,-1632(gp) # 245c0 <Microseconds>
   109c0:	18e7f7d3          	fdiv.s	fa5,fa5,fa4
   109c4:	9af1a227          	fsw	fa5,-1628(gp) # 245c4 <Dhrystones_Per_Second>
   109c8:	00022537          	lui	a0,0x22
   109cc:	c0050513          	addi	a0,a0,-1024 # 21c00 <zeroes.4123+0x598>
   109d0:	351000ef          	jal	11520 <printf>
   109d4:	9a01a787          	flw	fa5,-1632(gp) # 245c0 <Microseconds>
   109d8:	00022437          	lui	s0,0x22
   109dc:	420787d3          	fcvt.d.s	fa5,fa5
   109e0:	e20785d3          	fmv.x.d	a1,fa5
   109e4:	c3040513          	addi	a0,s0,-976 # 21c30 <zeroes.4123+0x5c8>
   109e8:	339000ef          	jal	11520 <printf>
   109ec:	00022537          	lui	a0,0x22
   109f0:	c3850513          	addi	a0,a0,-968 # 21c38 <zeroes.4123+0x5d0>
   109f4:	32d000ef          	jal	11520 <printf>
   109f8:	9a41a787          	flw	fa5,-1628(gp) # 245c4 <Dhrystones_Per_Second>
   109fc:	420787d3          	fcvt.d.s	fa5,fa5
   10a00:	e20785d3          	fmv.x.d	a1,fa5
   10a04:	c3040513          	addi	a0,s0,-976
   10a08:	319000ef          	jal	11520 <printf>
   10a0c:	00a00513          	li	a0,10
   10a10:	369000ef          	jal	11578 <putchar>
   10a14:	00000513          	li	a0,0
   10a18:	0c813083          	ld	ra,200(sp)
   10a1c:	0c013403          	ld	s0,192(sp)
   10a20:	0b813483          	ld	s1,184(sp)
   10a24:	0b013903          	ld	s2,176(sp)
   10a28:	0a813983          	ld	s3,168(sp)
   10a2c:	0a013a03          	ld	s4,160(sp)
   10a30:	09813a83          	ld	s5,152(sp)
   10a34:	09013b03          	ld	s6,144(sp)
   10a38:	08813b83          	ld	s7,136(sp)
   10a3c:	08013c03          	ld	s8,128(sp)
   10a40:	07813c83          	ld	s9,120(sp)
   10a44:	07013d03          	ld	s10,112(sp)
   10a48:	06813d83          	ld	s11,104(sp)
   10a4c:	0d010113          	addi	sp,sp,208
   10a50:	00008067          	ret

0000000000010a54 <Proc_6>:
   10a54:	00200793          	li	a5,2
   10a58:	04f50c63          	beq	a0,a5,10ab0 <Proc_6+0x5c>
   10a5c:	00300793          	li	a5,3
   10a60:	00f5a023          	sw	a5,0(a1)
   10a64:	00100793          	li	a5,1
   10a68:	02f50263          	beq	a0,a5,10a8c <Proc_6+0x38>
   10a6c:	00050c63          	beqz	a0,10a84 <Proc_6+0x30>
   10a70:	00200793          	li	a5,2
   10a74:	02f50e63          	beq	a0,a5,10ab0 <Proc_6+0x5c>
   10a78:	00400793          	li	a5,4
   10a7c:	04f50063          	beq	a0,a5,10abc <Proc_6+0x68>
   10a80:	00008067          	ret
   10a84:	0005a023          	sw	zero,0(a1)
   10a88:	00008067          	ret
   10a8c:	000277b7          	lui	a5,0x27
   10a90:	cf87a703          	lw	a4,-776(a5) # 26cf8 <Int_Glob>
   10a94:	06400793          	li	a5,100
   10a98:	00e7d663          	ble	a4,a5,10aa4 <Proc_6+0x50>
   10a9c:	0005a023          	sw	zero,0(a1)
   10aa0:	00008067          	ret
   10aa4:	00300793          	li	a5,3
   10aa8:	00f5a023          	sw	a5,0(a1)
   10aac:	00008067          	ret
   10ab0:	00100793          	li	a5,1
   10ab4:	00f5a023          	sw	a5,0(a1)
   10ab8:	00008067          	ret
   10abc:	00200793          	li	a5,2
   10ac0:	00f5a023          	sw	a5,0(a1)
   10ac4:	00008067          	ret

0000000000010ac8 <Proc_7>:
   10ac8:	0025051b          	addiw	a0,a0,2
   10acc:	00b505bb          	addw	a1,a0,a1
   10ad0:	00b62023          	sw	a1,0(a2)
   10ad4:	00008067          	ret

0000000000010ad8 <Proc_8>:
   10ad8:	0056081b          	addiw	a6,a2,5
   10adc:	00080313          	mv	t1,a6
   10ae0:	00231793          	slli	a5,t1,0x2
   10ae4:	00f50533          	add	a0,a0,a5
   10ae8:	00d52023          	sw	a3,0(a0)
   10aec:	00d52223          	sw	a3,4(a0)
   10af0:	07052c23          	sw	a6,120(a0)
   10af4:	0066089b          	addiw	a7,a2,6
   10af8:	0308c463          	blt	a7,a6,10b20 <Proc_8+0x48>
   10afc:	0c800693          	li	a3,200
   10b00:	02d306b3          	mul	a3,t1,a3
   10b04:	00d586b3          	add	a3,a1,a3
   10b08:	00080713          	mv	a4,a6
   10b0c:	00271793          	slli	a5,a4,0x2
   10b10:	00f687b3          	add	a5,a3,a5
   10b14:	0107a023          	sw	a6,0(a5)
   10b18:	0017071b          	addiw	a4,a4,1
   10b1c:	fee8d8e3          	ble	a4,a7,10b0c <Proc_8+0x34>
   10b20:	0c800793          	li	a5,200
   10b24:	02f30333          	mul	t1,t1,a5
   10b28:	00261793          	slli	a5,a2,0x2
   10b2c:	006787b3          	add	a5,a5,t1
   10b30:	00f587b3          	add	a5,a1,a5
   10b34:	0107a703          	lw	a4,16(a5)
   10b38:	0017071b          	addiw	a4,a4,1
   10b3c:	00e7a823          	sw	a4,16(a5)
   10b40:	00052703          	lw	a4,0(a0)
   10b44:	00658333          	add	t1,a1,t1
   10b48:	000017b7          	lui	a5,0x1
   10b4c:	00678333          	add	t1,a5,t1
   10b50:	00281813          	slli	a6,a6,0x2
   10b54:	01030833          	add	a6,t1,a6
   10b58:	fae82023          	sw	a4,-96(a6)
   10b5c:	00500713          	li	a4,5
   10b60:	000277b7          	lui	a5,0x27
   10b64:	cee7ac23          	sw	a4,-776(a5) # 26cf8 <Int_Glob>
   10b68:	00008067          	ret

0000000000010b6c <Func_1>:
   10b6c:	0ff57513          	andi	a0,a0,255
   10b70:	0ff5f593          	andi	a1,a1,255
   10b74:	00b51a63          	bne	a0,a1,10b88 <Func_1+0x1c>
   10b78:	000277b7          	lui	a5,0x27
   10b7c:	cea78e23          	sb	a0,-772(a5) # 26cfc <Ch_1_Glob>
   10b80:	00100513          	li	a0,1
   10b84:	00008067          	ret
   10b88:	00000513          	li	a0,0
   10b8c:	00008067          	ret

0000000000010b90 <Func_2>:
   10b90:	ff010113          	addi	sp,sp,-16
   10b94:	00113423          	sd	ra,8(sp)
   10b98:	00813023          	sd	s0,0(sp)
   10b9c:	00200413          	li	s0,2
   10ba0:	00027637          	lui	a2,0x27
   10ba4:	00040693          	mv	a3,s0
   10ba8:	00850733          	add	a4,a0,s0
   10bac:	00074703          	lbu	a4,0(a4)
   10bb0:	008587b3          	add	a5,a1,s0
   10bb4:	0017c783          	lbu	a5,1(a5)
   10bb8:	02e79863          	bne	a5,a4,10be8 <Func_2+0x58>
   10bbc:	cee60e23          	sb	a4,-772(a2) # 26cfc <Ch_1_Glob>
   10bc0:	fe86d4e3          	ble	s0,a3,10ba8 <Func_2+0x18>
   10bc4:	479000ef          	jal	1183c <strcmp>
   10bc8:	00a05c63          	blez	a0,10be0 <Func_2+0x50>
   10bcc:	0074041b          	addiw	s0,s0,7
   10bd0:	000277b7          	lui	a5,0x27
   10bd4:	ce87ac23          	sw	s0,-776(a5) # 26cf8 <Int_Glob>
   10bd8:	00100513          	li	a0,1
   10bdc:	0140006f          	j	10bf0 <Func_2+0x60>
   10be0:	00000513          	li	a0,0
   10be4:	00c0006f          	j	10bf0 <Func_2+0x60>
   10be8:	0014041b          	addiw	s0,s0,1
   10bec:	fd5ff06f          	j	10bc0 <Func_2+0x30>
   10bf0:	00813083          	ld	ra,8(sp)
   10bf4:	00013403          	ld	s0,0(sp)
   10bf8:	01010113          	addi	sp,sp,16
   10bfc:	00008067          	ret

0000000000010c00 <Func_3>:
   10c00:	ffe5051b          	addiw	a0,a0,-2
   10c04:	00153513          	seqz	a0,a0
   10c08:	00008067          	ret

0000000000010c0c <atexit>:
   10c0c:	00050593          	mv	a1,a0
   10c10:	00000693          	li	a3,0
   10c14:	00000613          	li	a2,0
   10c18:	00000513          	li	a0,0
   10c1c:	00c0406f          	j	14c28 <__register_exitproc>

0000000000010c20 <exit>:
   10c20:	ff010113          	addi	sp,sp,-16
   10c24:	00000593          	li	a1,0
   10c28:	00813023          	sd	s0,0(sp)
   10c2c:	00113423          	sd	ra,8(sp)
   10c30:	00050413          	mv	s0,a0
   10c34:	104040ef          	jal	14d38 <__call_exitprocs>
   10c38:	8101b503          	ld	a0,-2032(gp) # 24430 <_global_impure_ptr>
   10c3c:	05853783          	ld	a5,88(a0)
   10c40:	00078463          	beqz	a5,10c48 <exit+0x28>
   10c44:	000780e7          	jalr	a5
   10c48:	00040513          	mv	a0,s0
   10c4c:	2a10f0ef          	jal	206ec <_exit>

0000000000010c50 <__libc_fini_array>:
   10c50:	fe010113          	addi	sp,sp,-32
   10c54:	00813823          	sd	s0,16(sp)
   10c58:	00913423          	sd	s1,8(sp)
   10c5c:	00022437          	lui	s0,0x22
   10c60:	000224b7          	lui	s1,0x22
   10c64:	d8848493          	addi	s1,s1,-632 # 21d88 <__init_array_end>
   10c68:	d9040413          	addi	s0,s0,-624 # 21d90 <__fini_array_end>
   10c6c:	40940433          	sub	s0,s0,s1
   10c70:	ff840793          	addi	a5,s0,-8
   10c74:	00113c23          	sd	ra,24(sp)
   10c78:	40345413          	srai	s0,s0,0x3
   10c7c:	009784b3          	add	s1,a5,s1
   10c80:	00040c63          	beqz	s0,10c98 <__libc_fini_array+0x48>
   10c84:	0004b783          	ld	a5,0(s1)
   10c88:	fff40413          	addi	s0,s0,-1
   10c8c:	ff848493          	addi	s1,s1,-8
   10c90:	000780e7          	jalr	a5
   10c94:	fe0418e3          	bnez	s0,10c84 <__libc_fini_array+0x34>
   10c98:	01813083          	ld	ra,24(sp)
   10c9c:	01013403          	ld	s0,16(sp)
   10ca0:	00813483          	ld	s1,8(sp)
   10ca4:	02010113          	addi	sp,sp,32
   10ca8:	ba0ff06f          	j	10048 <_fini>

0000000000010cac <__libc_init_array>:
   10cac:	fe010113          	addi	sp,sp,-32
   10cb0:	00813823          	sd	s0,16(sp)
   10cb4:	000227b7          	lui	a5,0x22
   10cb8:	00022437          	lui	s0,0x22
   10cbc:	01213023          	sd	s2,0(sp)
   10cc0:	d8078793          	addi	a5,a5,-640 # 21d80 <_etext>
   10cc4:	d8040913          	addi	s2,s0,-640 # 21d80 <_etext>
   10cc8:	41278933          	sub	s2,a5,s2
   10ccc:	00913423          	sd	s1,8(sp)
   10cd0:	00113c23          	sd	ra,24(sp)
   10cd4:	40395913          	srai	s2,s2,0x3
   10cd8:	d8040413          	addi	s0,s0,-640
   10cdc:	00000493          	li	s1,0
   10ce0:	00090c63          	beqz	s2,10cf8 <__libc_init_array+0x4c>
   10ce4:	00043783          	ld	a5,0(s0)
   10ce8:	00148493          	addi	s1,s1,1
   10cec:	00840413          	addi	s0,s0,8
   10cf0:	000780e7          	jalr	a5
   10cf4:	fe9918e3          	bne	s2,s1,10ce4 <__libc_init_array+0x38>
   10cf8:	b50ff0ef          	jal	10048 <_fini>
   10cfc:	00022437          	lui	s0,0x22
   10d00:	000227b7          	lui	a5,0x22
   10d04:	d8040913          	addi	s2,s0,-640 # 21d80 <_etext>
   10d08:	d8878793          	addi	a5,a5,-632 # 21d88 <__init_array_end>
   10d0c:	41278933          	sub	s2,a5,s2
   10d10:	40395913          	srai	s2,s2,0x3
   10d14:	d8040413          	addi	s0,s0,-640
   10d18:	00000493          	li	s1,0
   10d1c:	00090c63          	beqz	s2,10d34 <__libc_init_array+0x88>
   10d20:	00043783          	ld	a5,0(s0)
   10d24:	00148493          	addi	s1,s1,1
   10d28:	00840413          	addi	s0,s0,8
   10d2c:	000780e7          	jalr	a5
   10d30:	fe9918e3          	bne	s2,s1,10d20 <__libc_init_array+0x74>
   10d34:	01813083          	ld	ra,24(sp)
   10d38:	01013403          	ld	s0,16(sp)
   10d3c:	00813483          	ld	s1,8(sp)
   10d40:	00013903          	ld	s2,0(sp)
   10d44:	02010113          	addi	sp,sp,32
   10d48:	00008067          	ret

0000000000010d4c <malloc>:
   10d4c:	00050593          	mv	a1,a0
   10d50:	8181b503          	ld	a0,-2024(gp) # 24438 <_impure_ptr>
   10d54:	0100006f          	j	10d64 <_malloc_r>

0000000000010d58 <free>:
   10d58:	00050593          	mv	a1,a0
   10d5c:	8181b503          	ld	a0,-2024(gp) # 24438 <_impure_ptr>
   10d60:	62d0506f          	j	16b8c <_free_r>

0000000000010d64 <_malloc_r>:
   10d64:	fa010113          	addi	sp,sp,-96
   10d68:	04913423          	sd	s1,72(sp)
   10d6c:	03313c23          	sd	s3,56(sp)
   10d70:	04113c23          	sd	ra,88(sp)
   10d74:	04813823          	sd	s0,80(sp)
   10d78:	05213023          	sd	s2,64(sp)
   10d7c:	03413823          	sd	s4,48(sp)
   10d80:	03513423          	sd	s5,40(sp)
   10d84:	03613023          	sd	s6,32(sp)
   10d88:	01713c23          	sd	s7,24(sp)
   10d8c:	01813823          	sd	s8,16(sp)
   10d90:	01913423          	sd	s9,8(sp)
   10d94:	01758493          	addi	s1,a1,23
   10d98:	02e00793          	li	a5,46
   10d9c:	00050993          	mv	s3,a0
   10da0:	1c97fa63          	bleu	s1,a5,10f74 <_malloc_r+0x210>
   10da4:	800007b7          	lui	a5,0x80000
   10da8:	ff04f493          	andi	s1,s1,-16
   10dac:	fff7c793          	not	a5,a5
   10db0:	2497ee63          	bltu	a5,s1,1100c <_malloc_r+0x2a8>
   10db4:	24b4ec63          	bltu	s1,a1,1100c <_malloc_r+0x2a8>
   10db8:	71c000ef          	jal	114d4 <__malloc_lock>
   10dbc:	1f700793          	li	a5,503
   10dc0:	7097f063          	bleu	s1,a5,114c0 <_malloc_r+0x75c>
   10dc4:	0094d793          	srli	a5,s1,0x9
   10dc8:	08000693          	li	a3,128
   10dcc:	04000513          	li	a0,64
   10dd0:	03f00593          	li	a1,63
   10dd4:	24079463          	bnez	a5,1101c <_malloc_r+0x2b8>
   10dd8:	00024937          	lui	s2,0x24
   10ddc:	b6890913          	addi	s2,s2,-1176 # 23b68 <__malloc_av_>
   10de0:	00369693          	slli	a3,a3,0x3
   10de4:	00d906b3          	add	a3,s2,a3
   10de8:	0086b403          	ld	s0,8(a3)
   10dec:	ff068693          	addi	a3,a3,-16
   10df0:	24868663          	beq	a3,s0,1103c <_malloc_r+0x2d8>
   10df4:	00843783          	ld	a5,8(s0)
   10df8:	01f00613          	li	a2,31
   10dfc:	ffc7f793          	andi	a5,a5,-4
   10e00:	40978733          	sub	a4,a5,s1
   10e04:	02e64063          	blt	a2,a4,10e24 <_malloc_r+0xc0>
   10e08:	22075e63          	bgez	a4,11044 <_malloc_r+0x2e0>
   10e0c:	01843403          	ld	s0,24(s0)
   10e10:	22868663          	beq	a3,s0,1103c <_malloc_r+0x2d8>
   10e14:	00843783          	ld	a5,8(s0)
   10e18:	ffc7f793          	andi	a5,a5,-4
   10e1c:	40978733          	sub	a4,a5,s1
   10e20:	fee654e3          	ble	a4,a2,10e08 <_malloc_r+0xa4>
   10e24:	00058693          	mv	a3,a1
   10e28:	02093403          	ld	s0,32(s2)
   10e2c:	01090813          	addi	a6,s2,16
   10e30:	47040a63          	beq	s0,a6,112a4 <_malloc_r+0x540>
   10e34:	00843783          	ld	a5,8(s0)
   10e38:	01f00613          	li	a2,31
   10e3c:	ffc7f793          	andi	a5,a5,-4
   10e40:	40978733          	sub	a4,a5,s1
   10e44:	44e64a63          	blt	a2,a4,11298 <_malloc_r+0x534>
   10e48:	03093423          	sd	a6,40(s2)
   10e4c:	03093023          	sd	a6,32(s2)
   10e50:	20075063          	bgez	a4,11050 <_malloc_r+0x2ec>
   10e54:	1ff00713          	li	a4,511
   10e58:	3cf76c63          	bltu	a4,a5,11230 <_malloc_r+0x4cc>
   10e5c:	0037d793          	srli	a5,a5,0x3
   10e60:	0007879b          	sext.w	a5,a5
   10e64:	0017861b          	addiw	a2,a5,1
   10e68:	0016161b          	slliw	a2,a2,0x1
   10e6c:	00361613          	slli	a2,a2,0x3
   10e70:	00893703          	ld	a4,8(s2)
   10e74:	00c90633          	add	a2,s2,a2
   10e78:	00063503          	ld	a0,0(a2)
   10e7c:	4027d79b          	sraiw	a5,a5,0x2
   10e80:	00100593          	li	a1,1
   10e84:	00f597b3          	sll	a5,a1,a5
   10e88:	00e7e7b3          	or	a5,a5,a4
   10e8c:	ff060713          	addi	a4,a2,-16
   10e90:	00e43c23          	sd	a4,24(s0)
   10e94:	00a43823          	sd	a0,16(s0)
   10e98:	00f93423          	sd	a5,8(s2)
   10e9c:	00863023          	sd	s0,0(a2)
   10ea0:	00853c23          	sd	s0,24(a0)
   10ea4:	4026d61b          	sraiw	a2,a3,0x2
   10ea8:	00100713          	li	a4,1
   10eac:	00c71633          	sll	a2,a4,a2
   10eb0:	1cc7e063          	bltu	a5,a2,11070 <_malloc_r+0x30c>
   10eb4:	00f67733          	and	a4,a2,a5
   10eb8:	02071463          	bnez	a4,10ee0 <_malloc_r+0x17c>
   10ebc:	00161613          	slli	a2,a2,0x1
   10ec0:	ffc6f693          	andi	a3,a3,-4
   10ec4:	00f67733          	and	a4,a2,a5
   10ec8:	0046869b          	addiw	a3,a3,4
   10ecc:	00071a63          	bnez	a4,10ee0 <_malloc_r+0x17c>
   10ed0:	00161613          	slli	a2,a2,0x1
   10ed4:	00f67733          	and	a4,a2,a5
   10ed8:	0046869b          	addiw	a3,a3,4
   10edc:	fe070ae3          	beqz	a4,10ed0 <_malloc_r+0x16c>
   10ee0:	01f00513          	li	a0,31
   10ee4:	0016889b          	addiw	a7,a3,1
   10ee8:	0018989b          	slliw	a7,a7,0x1
   10eec:	00389893          	slli	a7,a7,0x3
   10ef0:	011908b3          	add	a7,s2,a7
   10ef4:	ff088893          	addi	a7,a7,-16
   10ef8:	00088593          	mv	a1,a7
   10efc:	00068313          	mv	t1,a3
   10f00:	0185b403          	ld	s0,24(a1)
   10f04:	00859a63          	bne	a1,s0,10f18 <_malloc_r+0x1b4>
   10f08:	3a40006f          	j	112ac <_malloc_r+0x548>
   10f0c:	3c075263          	bgez	a4,112d0 <_malloc_r+0x56c>
   10f10:	01843403          	ld	s0,24(s0)
   10f14:	38858c63          	beq	a1,s0,112ac <_malloc_r+0x548>
   10f18:	00843783          	ld	a5,8(s0)
   10f1c:	ffc7f793          	andi	a5,a5,-4
   10f20:	40978733          	sub	a4,a5,s1
   10f24:	fee554e3          	ble	a4,a0,10f0c <_malloc_r+0x1a8>
   10f28:	01843783          	ld	a5,24(s0)
   10f2c:	01043683          	ld	a3,16(s0)
   10f30:	0014e613          	ori	a2,s1,1
   10f34:	00c43423          	sd	a2,8(s0)
   10f38:	00f6bc23          	sd	a5,24(a3)
   10f3c:	00d7b823          	sd	a3,16(a5) # ffffffff80000010 <_end+0xffffffff7ffd9218>
   10f40:	009404b3          	add	s1,s0,s1
   10f44:	02993423          	sd	s1,40(s2)
   10f48:	02993023          	sd	s1,32(s2)
   10f4c:	00176793          	ori	a5,a4,1
   10f50:	0104bc23          	sd	a6,24(s1)
   10f54:	0104b823          	sd	a6,16(s1)
   10f58:	00f4b423          	sd	a5,8(s1)
   10f5c:	00e484b3          	add	s1,s1,a4
   10f60:	00098513          	mv	a0,s3
   10f64:	00e4b023          	sd	a4,0(s1)
   10f68:	570000ef          	jal	114d8 <__malloc_unlock>
   10f6c:	01040513          	addi	a0,s0,16
   10f70:	0680006f          	j	10fd8 <_malloc_r+0x274>
   10f74:	02000493          	li	s1,32
   10f78:	08b4ea63          	bltu	s1,a1,1100c <_malloc_r+0x2a8>
   10f7c:	558000ef          	jal	114d4 <__malloc_lock>
   10f80:	00a00793          	li	a5,10
   10f84:	00400693          	li	a3,4
   10f88:	00024937          	lui	s2,0x24
   10f8c:	b6890913          	addi	s2,s2,-1176 # 23b68 <__malloc_av_>
   10f90:	00379793          	slli	a5,a5,0x3
   10f94:	00f907b3          	add	a5,s2,a5
   10f98:	0087b403          	ld	s0,8(a5)
   10f9c:	ff078713          	addi	a4,a5,-16
   10fa0:	32e40063          	beq	s0,a4,112c0 <_malloc_r+0x55c>
   10fa4:	00843783          	ld	a5,8(s0)
   10fa8:	01843683          	ld	a3,24(s0)
   10fac:	01043603          	ld	a2,16(s0)
   10fb0:	ffc7f793          	andi	a5,a5,-4
   10fb4:	00f407b3          	add	a5,s0,a5
   10fb8:	0087b703          	ld	a4,8(a5)
   10fbc:	00d63c23          	sd	a3,24(a2)
   10fc0:	00c6b823          	sd	a2,16(a3)
   10fc4:	00176713          	ori	a4,a4,1
   10fc8:	00098513          	mv	a0,s3
   10fcc:	00e7b423          	sd	a4,8(a5)
   10fd0:	508000ef          	jal	114d8 <__malloc_unlock>
   10fd4:	01040513          	addi	a0,s0,16
   10fd8:	05813083          	ld	ra,88(sp)
   10fdc:	05013403          	ld	s0,80(sp)
   10fe0:	04813483          	ld	s1,72(sp)
   10fe4:	04013903          	ld	s2,64(sp)
   10fe8:	03813983          	ld	s3,56(sp)
   10fec:	03013a03          	ld	s4,48(sp)
   10ff0:	02813a83          	ld	s5,40(sp)
   10ff4:	02013b03          	ld	s6,32(sp)
   10ff8:	01813b83          	ld	s7,24(sp)
   10ffc:	01013c03          	ld	s8,16(sp)
   11000:	00813c83          	ld	s9,8(sp)
   11004:	06010113          	addi	sp,sp,96
   11008:	00008067          	ret
   1100c:	00c00793          	li	a5,12
   11010:	00f9a023          	sw	a5,0(s3)
   11014:	00000513          	li	a0,0
   11018:	fc1ff06f          	j	10fd8 <_malloc_r+0x274>
   1101c:	00400713          	li	a4,4
   11020:	1ef76463          	bltu	a4,a5,11208 <_malloc_r+0x4a4>
   11024:	0064d593          	srli	a1,s1,0x6
   11028:	0005859b          	sext.w	a1,a1
   1102c:	0395851b          	addiw	a0,a1,57
   11030:	0015169b          	slliw	a3,a0,0x1
   11034:	0385859b          	addiw	a1,a1,56
   11038:	da1ff06f          	j	10dd8 <_malloc_r+0x74>
   1103c:	00050693          	mv	a3,a0
   11040:	de9ff06f          	j	10e28 <_malloc_r+0xc4>
   11044:	01843683          	ld	a3,24(s0)
   11048:	01043603          	ld	a2,16(s0)
   1104c:	f69ff06f          	j	10fb4 <_malloc_r+0x250>
   11050:	00f407b3          	add	a5,s0,a5
   11054:	0087b703          	ld	a4,8(a5)
   11058:	00098513          	mv	a0,s3
   1105c:	00176713          	ori	a4,a4,1
   11060:	00e7b423          	sd	a4,8(a5)
   11064:	474000ef          	jal	114d8 <__malloc_unlock>
   11068:	01040513          	addi	a0,s0,16
   1106c:	f6dff06f          	j	10fd8 <_malloc_r+0x274>
   11070:	01093403          	ld	s0,16(s2)
   11074:	00843703          	ld	a4,8(s0)
   11078:	ffc77b93          	andi	s7,a4,-4
   1107c:	009be863          	bltu	s7,s1,1108c <_malloc_r+0x328>
   11080:	409b87b3          	sub	a5,s7,s1
   11084:	01f00713          	li	a4,31
   11088:	14f74c63          	blt	a4,a5,111e0 <_malloc_r+0x47c>
   1108c:	9101b783          	ld	a5,-1776(gp) # 24530 <__malloc_top_pad>
   11090:	8201b683          	ld	a3,-2016(gp) # 24440 <__malloc_sbrk_base>
   11094:	fff00713          	li	a4,-1
   11098:	00f487b3          	add	a5,s1,a5
   1109c:	01740a33          	add	s4,s0,s7
   110a0:	02078b13          	addi	s6,a5,32
   110a4:	00e68c63          	beq	a3,a4,110bc <_malloc_r+0x358>
   110a8:	00001b37          	lui	s6,0x1
   110ac:	01fb0b13          	addi	s6,s6,31 # 101f <_ftext-0xefe1>
   110b0:	01678b33          	add	s6,a5,s6
   110b4:	fffff7b7          	lui	a5,0xfffff
   110b8:	00fb7b33          	and	s6,s6,a5
   110bc:	000b0513          	mv	a0,s6
   110c0:	5d80f0ef          	jal	20698 <sbrk>
   110c4:	fff00793          	li	a5,-1
   110c8:	00050a93          	mv	s5,a0
   110cc:	26f50263          	beq	a0,a5,11330 <_malloc_r+0x5cc>
   110d0:	25456e63          	bltu	a0,s4,1132c <_malloc_r+0x5c8>
   110d4:	96818c13          	addi	s8,gp,-1688 # 24588 <__malloc_current_mallinfo>
   110d8:	000c2783          	lw	a5,0(s8)
   110dc:	00fb07bb          	addw	a5,s6,a5
   110e0:	00fc2023          	sw	a5,0(s8)
   110e4:	355a0463          	beq	s4,s5,1142c <_malloc_r+0x6c8>
   110e8:	8201b683          	ld	a3,-2016(gp) # 24440 <__malloc_sbrk_base>
   110ec:	fff00713          	li	a4,-1
   110f0:	36e68263          	beq	a3,a4,11454 <_malloc_r+0x6f0>
   110f4:	414a8a33          	sub	s4,s5,s4
   110f8:	00fa07bb          	addw	a5,s4,a5
   110fc:	00fc2023          	sw	a5,0(s8)
   11100:	00faf713          	andi	a4,s5,15
   11104:	000017b7          	lui	a5,0x1
   11108:	00070a63          	beqz	a4,1111c <_malloc_r+0x3b8>
   1110c:	40ea8ab3          	sub	s5,s5,a4
   11110:	01078a13          	addi	s4,a5,16 # 1010 <_ftext-0xeff0>
   11114:	010a8a93          	addi	s5,s5,16
   11118:	40ea07b3          	sub	a5,s4,a4
   1111c:	00001a37          	lui	s4,0x1
   11120:	fffa0a13          	addi	s4,s4,-1 # fff <_ftext-0xf001>
   11124:	016a8b33          	add	s6,s5,s6
   11128:	014b7b33          	and	s6,s6,s4
   1112c:	41678a33          	sub	s4,a5,s6
   11130:	000a0513          	mv	a0,s4
   11134:	5640f0ef          	jal	20698 <sbrk>
   11138:	fff00793          	li	a5,-1
   1113c:	30f50663          	beq	a0,a5,11448 <_malloc_r+0x6e4>
   11140:	41550733          	sub	a4,a0,s5
   11144:	01470733          	add	a4,a4,s4
   11148:	00176713          	ori	a4,a4,1
   1114c:	000a0a1b          	sext.w	s4,s4
   11150:	000c2783          	lw	a5,0(s8)
   11154:	01593823          	sd	s5,16(s2)
   11158:	00eab423          	sd	a4,8(s5)
   1115c:	00fa07bb          	addw	a5,s4,a5
   11160:	00fc2023          	sw	a5,0(s8)
   11164:	03240c63          	beq	s0,s2,1119c <_malloc_r+0x438>
   11168:	01f00613          	li	a2,31
   1116c:	27767463          	bleu	s7,a2,113d4 <_malloc_r+0x670>
   11170:	00843683          	ld	a3,8(s0)
   11174:	fe8b8713          	addi	a4,s7,-24
   11178:	ff077713          	andi	a4,a4,-16
   1117c:	0016f693          	andi	a3,a3,1
   11180:	00e6e6b3          	or	a3,a3,a4
   11184:	00d43423          	sd	a3,8(s0)
   11188:	00900593          	li	a1,9
   1118c:	00e406b3          	add	a3,s0,a4
   11190:	00b6b423          	sd	a1,8(a3)
   11194:	00b6b823          	sd	a1,16(a3)
   11198:	2ce66263          	bltu	a2,a4,1145c <_malloc_r+0x6f8>
   1119c:	9081b683          	ld	a3,-1784(gp) # 24528 <__malloc_max_sbrked_mem>
   111a0:	00f6f463          	bleu	a5,a3,111a8 <_malloc_r+0x444>
   111a4:	90f1b423          	sd	a5,-1784(gp) # 24528 <__malloc_max_sbrked_mem>
   111a8:	9001b683          	ld	a3,-1792(gp) # 24520 <__malloc_max_total_mem>
   111ac:	01093403          	ld	s0,16(s2)
   111b0:	00f6f463          	bleu	a5,a3,111b8 <_malloc_r+0x454>
   111b4:	90f1b023          	sd	a5,-1792(gp) # 24520 <__malloc_max_total_mem>
   111b8:	00843703          	ld	a4,8(s0)
   111bc:	ffc77713          	andi	a4,a4,-4
   111c0:	409707b3          	sub	a5,a4,s1
   111c4:	00976663          	bltu	a4,s1,111d0 <_malloc_r+0x46c>
   111c8:	01f00713          	li	a4,31
   111cc:	00f74a63          	blt	a4,a5,111e0 <_malloc_r+0x47c>
   111d0:	00098513          	mv	a0,s3
   111d4:	304000ef          	jal	114d8 <__malloc_unlock>
   111d8:	00000513          	li	a0,0
   111dc:	dfdff06f          	j	10fd8 <_malloc_r+0x274>
   111e0:	0014e713          	ori	a4,s1,1
   111e4:	00e43423          	sd	a4,8(s0)
   111e8:	009404b3          	add	s1,s0,s1
   111ec:	00993823          	sd	s1,16(s2)
   111f0:	0017e793          	ori	a5,a5,1
   111f4:	00098513          	mv	a0,s3
   111f8:	00f4b423          	sd	a5,8(s1)
   111fc:	2dc000ef          	jal	114d8 <__malloc_unlock>
   11200:	01040513          	addi	a0,s0,16
   11204:	dd5ff06f          	j	10fd8 <_malloc_r+0x274>
   11208:	01400713          	li	a4,20
   1120c:	0ef77a63          	bleu	a5,a4,11300 <_malloc_r+0x59c>
   11210:	05400713          	li	a4,84
   11214:	18f76063          	bltu	a4,a5,11394 <_malloc_r+0x630>
   11218:	00c4d593          	srli	a1,s1,0xc
   1121c:	0005859b          	sext.w	a1,a1
   11220:	06f5851b          	addiw	a0,a1,111
   11224:	0015169b          	slliw	a3,a0,0x1
   11228:	06e5859b          	addiw	a1,a1,110
   1122c:	badff06f          	j	10dd8 <_malloc_r+0x74>
   11230:	0097d713          	srli	a4,a5,0x9
   11234:	00400613          	li	a2,4
   11238:	0ce67e63          	bleu	a4,a2,11314 <_malloc_r+0x5b0>
   1123c:	01400613          	li	a2,20
   11240:	1ce66663          	bltu	a2,a4,1140c <_malloc_r+0x6a8>
   11244:	0007071b          	sext.w	a4,a4
   11248:	05c7059b          	addiw	a1,a4,92
   1124c:	05b7061b          	addiw	a2,a4,91
   11250:	0015959b          	slliw	a1,a1,0x1
   11254:	00359593          	slli	a1,a1,0x3
   11258:	00b905b3          	add	a1,s2,a1
   1125c:	0005b703          	ld	a4,0(a1)
   11260:	ff058593          	addi	a1,a1,-16
   11264:	14e58863          	beq	a1,a4,113b4 <_malloc_r+0x650>
   11268:	00873603          	ld	a2,8(a4)
   1126c:	ffc67613          	andi	a2,a2,-4
   11270:	00c7f663          	bleu	a2,a5,1127c <_malloc_r+0x518>
   11274:	01073703          	ld	a4,16(a4)
   11278:	fee598e3          	bne	a1,a4,11268 <_malloc_r+0x504>
   1127c:	01873583          	ld	a1,24(a4)
   11280:	00893783          	ld	a5,8(s2)
   11284:	00b43c23          	sd	a1,24(s0)
   11288:	00e43823          	sd	a4,16(s0)
   1128c:	0085b823          	sd	s0,16(a1)
   11290:	00873c23          	sd	s0,24(a4)
   11294:	c11ff06f          	j	10ea4 <_malloc_r+0x140>
   11298:	0014e793          	ori	a5,s1,1
   1129c:	00f43423          	sd	a5,8(s0)
   112a0:	ca1ff06f          	j	10f40 <_malloc_r+0x1dc>
   112a4:	00893783          	ld	a5,8(s2)
   112a8:	bfdff06f          	j	10ea4 <_malloc_r+0x140>
   112ac:	0013031b          	addiw	t1,t1,1
   112b0:	00337793          	andi	a5,t1,3
   112b4:	01058593          	addi	a1,a1,16
   112b8:	c40794e3          	bnez	a5,10f00 <_malloc_r+0x19c>
   112bc:	0900006f          	j	1134c <_malloc_r+0x5e8>
   112c0:	0187b403          	ld	s0,24(a5)
   112c4:	0026869b          	addiw	a3,a3,2
   112c8:	b68780e3          	beq	a5,s0,10e28 <_malloc_r+0xc4>
   112cc:	cd9ff06f          	j	10fa4 <_malloc_r+0x240>
   112d0:	00f407b3          	add	a5,s0,a5
   112d4:	0087b703          	ld	a4,8(a5)
   112d8:	01843683          	ld	a3,24(s0)
   112dc:	01043603          	ld	a2,16(s0)
   112e0:	00176713          	ori	a4,a4,1
   112e4:	00e7b423          	sd	a4,8(a5)
   112e8:	00d63c23          	sd	a3,24(a2)
   112ec:	00098513          	mv	a0,s3
   112f0:	00c6b823          	sd	a2,16(a3)
   112f4:	1e4000ef          	jal	114d8 <__malloc_unlock>
   112f8:	01040513          	addi	a0,s0,16
   112fc:	cddff06f          	j	10fd8 <_malloc_r+0x274>
   11300:	0007879b          	sext.w	a5,a5
   11304:	05c7851b          	addiw	a0,a5,92
   11308:	05b7859b          	addiw	a1,a5,91
   1130c:	0015169b          	slliw	a3,a0,0x1
   11310:	ac9ff06f          	j	10dd8 <_malloc_r+0x74>
   11314:	0067d713          	srli	a4,a5,0x6
   11318:	0007071b          	sext.w	a4,a4
   1131c:	0397059b          	addiw	a1,a4,57
   11320:	0387061b          	addiw	a2,a4,56
   11324:	0015959b          	slliw	a1,a1,0x1
   11328:	f2dff06f          	j	11254 <_malloc_r+0x4f0>
   1132c:	db2404e3          	beq	s0,s2,110d4 <_malloc_r+0x370>
   11330:	01093403          	ld	s0,16(s2)
   11334:	00843703          	ld	a4,8(s0)
   11338:	ffc77713          	andi	a4,a4,-4
   1133c:	e85ff06f          	j	111c0 <_malloc_r+0x45c>
   11340:	0108b783          	ld	a5,16(a7)
   11344:	fff6869b          	addiw	a3,a3,-1
   11348:	16f89863          	bne	a7,a5,114b8 <_malloc_r+0x754>
   1134c:	0036f793          	andi	a5,a3,3
   11350:	ff088893          	addi	a7,a7,-16
   11354:	fe0796e3          	bnez	a5,11340 <_malloc_r+0x5dc>
   11358:	00893783          	ld	a5,8(s2)
   1135c:	fff64713          	not	a4,a2
   11360:	00f777b3          	and	a5,a4,a5
   11364:	00f93423          	sd	a5,8(s2)
   11368:	00161613          	slli	a2,a2,0x1
   1136c:	d0c7e2e3          	bltu	a5,a2,11070 <_malloc_r+0x30c>
   11370:	d00600e3          	beqz	a2,11070 <_malloc_r+0x30c>
   11374:	00f67733          	and	a4,a2,a5
   11378:	00030693          	mv	a3,t1
   1137c:	b60714e3          	bnez	a4,10ee4 <_malloc_r+0x180>
   11380:	00161613          	slli	a2,a2,0x1
   11384:	00f67733          	and	a4,a2,a5
   11388:	0046869b          	addiw	a3,a3,4
   1138c:	fe070ae3          	beqz	a4,11380 <_malloc_r+0x61c>
   11390:	b55ff06f          	j	10ee4 <_malloc_r+0x180>
   11394:	15400713          	li	a4,340
   11398:	04f76463          	bltu	a4,a5,113e0 <_malloc_r+0x67c>
   1139c:	00f4d593          	srli	a1,s1,0xf
   113a0:	0005859b          	sext.w	a1,a1
   113a4:	0785851b          	addiw	a0,a1,120
   113a8:	0015169b          	slliw	a3,a0,0x1
   113ac:	0775859b          	addiw	a1,a1,119
   113b0:	a29ff06f          	j	10dd8 <_malloc_r+0x74>
   113b4:	00893783          	ld	a5,8(s2)
   113b8:	4026571b          	sraiw	a4,a2,0x2
   113bc:	00100613          	li	a2,1
   113c0:	00e61733          	sll	a4,a2,a4
   113c4:	00f767b3          	or	a5,a4,a5
   113c8:	00f93423          	sd	a5,8(s2)
   113cc:	00058713          	mv	a4,a1
   113d0:	eb5ff06f          	j	11284 <_malloc_r+0x520>
   113d4:	00100793          	li	a5,1
   113d8:	00fab423          	sd	a5,8(s5)
   113dc:	df5ff06f          	j	111d0 <_malloc_r+0x46c>
   113e0:	55400713          	li	a4,1364
   113e4:	0fe00693          	li	a3,254
   113e8:	07f00513          	li	a0,127
   113ec:	07e00593          	li	a1,126
   113f0:	9ef764e3          	bltu	a4,a5,10dd8 <_malloc_r+0x74>
   113f4:	0124d593          	srli	a1,s1,0x12
   113f8:	0005859b          	sext.w	a1,a1
   113fc:	07d5851b          	addiw	a0,a1,125
   11400:	0015169b          	slliw	a3,a0,0x1
   11404:	07c5859b          	addiw	a1,a1,124
   11408:	9d1ff06f          	j	10dd8 <_malloc_r+0x74>
   1140c:	05400613          	li	a2,84
   11410:	06e66063          	bltu	a2,a4,11470 <_malloc_r+0x70c>
   11414:	00c7d713          	srli	a4,a5,0xc
   11418:	0007071b          	sext.w	a4,a4
   1141c:	06f7059b          	addiw	a1,a4,111
   11420:	06e7061b          	addiw	a2,a4,110
   11424:	0015959b          	slliw	a1,a1,0x1
   11428:	e2dff06f          	j	11254 <_malloc_r+0x4f0>
   1142c:	034a1713          	slli	a4,s4,0x34
   11430:	ca071ce3          	bnez	a4,110e8 <_malloc_r+0x384>
   11434:	01093683          	ld	a3,16(s2)
   11438:	016b8733          	add	a4,s7,s6
   1143c:	00176713          	ori	a4,a4,1
   11440:	00e6b423          	sd	a4,8(a3)
   11444:	d59ff06f          	j	1119c <_malloc_r+0x438>
   11448:	00100713          	li	a4,1
   1144c:	00000a13          	li	s4,0
   11450:	d01ff06f          	j	11150 <_malloc_r+0x3ec>
   11454:	8351b023          	sd	s5,-2016(gp) # 24440 <__malloc_sbrk_base>
   11458:	ca9ff06f          	j	11100 <_malloc_r+0x39c>
   1145c:	01040593          	addi	a1,s0,16
   11460:	00098513          	mv	a0,s3
   11464:	728050ef          	jal	16b8c <_free_r>
   11468:	000c2783          	lw	a5,0(s8)
   1146c:	d31ff06f          	j	1119c <_malloc_r+0x438>
   11470:	15400613          	li	a2,340
   11474:	00e66e63          	bltu	a2,a4,11490 <_malloc_r+0x72c>
   11478:	00f7d713          	srli	a4,a5,0xf
   1147c:	0007071b          	sext.w	a4,a4
   11480:	0787059b          	addiw	a1,a4,120
   11484:	0777061b          	addiw	a2,a4,119
   11488:	0015959b          	slliw	a1,a1,0x1
   1148c:	dc9ff06f          	j	11254 <_malloc_r+0x4f0>
   11490:	55400513          	li	a0,1364
   11494:	0fe00593          	li	a1,254
   11498:	07e00613          	li	a2,126
   1149c:	dae56ce3          	bltu	a0,a4,11254 <_malloc_r+0x4f0>
   114a0:	0127d713          	srli	a4,a5,0x12
   114a4:	0007071b          	sext.w	a4,a4
   114a8:	07d7059b          	addiw	a1,a4,125
   114ac:	07c7061b          	addiw	a2,a4,124
   114b0:	0015959b          	slliw	a1,a1,0x1
   114b4:	da1ff06f          	j	11254 <_malloc_r+0x4f0>
   114b8:	00893783          	ld	a5,8(s2)
   114bc:	eadff06f          	j	11368 <_malloc_r+0x604>
   114c0:	0034d693          	srli	a3,s1,0x3
   114c4:	0006869b          	sext.w	a3,a3
   114c8:	0016879b          	addiw	a5,a3,1
   114cc:	0017979b          	slliw	a5,a5,0x1
   114d0:	ab9ff06f          	j	10f88 <_malloc_r+0x224>

00000000000114d4 <__malloc_lock>:
   114d4:	00008067          	ret

00000000000114d8 <__malloc_unlock>:
   114d8:	00008067          	ret

00000000000114dc <_printf_r>:
   114dc:	fb010113          	addi	sp,sp,-80
   114e0:	02c13023          	sd	a2,32(sp)
   114e4:	02d13423          	sd	a3,40(sp)
   114e8:	02f13c23          	sd	a5,56(sp)
   114ec:	02e13823          	sd	a4,48(sp)
   114f0:	05013023          	sd	a6,64(sp)
   114f4:	05113423          	sd	a7,72(sp)
   114f8:	00058613          	mv	a2,a1
   114fc:	01053583          	ld	a1,16(a0)
   11500:	02010793          	addi	a5,sp,32
   11504:	00078693          	mv	a3,a5
   11508:	00113c23          	sd	ra,24(sp)
   1150c:	00f13423          	sd	a5,8(sp)
   11510:	528000ef          	jal	11a38 <_vfprintf_r>
   11514:	01813083          	ld	ra,24(sp)
   11518:	05010113          	addi	sp,sp,80
   1151c:	00008067          	ret

0000000000011520 <printf>:
   11520:	8181b303          	ld	t1,-2024(gp) # 24438 <_impure_ptr>
   11524:	fa010113          	addi	sp,sp,-96
   11528:	02c13823          	sd	a2,48(sp)
   1152c:	02d13c23          	sd	a3,56(sp)
   11530:	04f13423          	sd	a5,72(sp)
   11534:	02b13423          	sd	a1,40(sp)
   11538:	04e13023          	sd	a4,64(sp)
   1153c:	05013823          	sd	a6,80(sp)
   11540:	05113c23          	sd	a7,88(sp)
   11544:	01033583          	ld	a1,16(t1)
   11548:	02810793          	addi	a5,sp,40
   1154c:	00050613          	mv	a2,a0
   11550:	00078693          	mv	a3,a5
   11554:	00030513          	mv	a0,t1
   11558:	00113c23          	sd	ra,24(sp)
   1155c:	00f13423          	sd	a5,8(sp)
   11560:	4d8000ef          	jal	11a38 <_vfprintf_r>
   11564:	01813083          	ld	ra,24(sp)
   11568:	06010113          	addi	sp,sp,96
   1156c:	00008067          	ret

0000000000011570 <_putchar_r>:
   11570:	01053603          	ld	a2,16(a0)
   11574:	0180006f          	j	1158c <_putc_r>

0000000000011578 <putchar>:
   11578:	8181b783          	ld	a5,-2024(gp) # 24438 <_impure_ptr>
   1157c:	00050593          	mv	a1,a0
   11580:	0107b603          	ld	a2,16(a5)
   11584:	00078513          	mv	a0,a5
   11588:	0040006f          	j	1158c <_putc_r>

000000000001158c <_putc_r>:
   1158c:	fe010113          	addi	sp,sp,-32
   11590:	00813823          	sd	s0,16(sp)
   11594:	00113c23          	sd	ra,24(sp)
   11598:	00050413          	mv	s0,a0
   1159c:	00050663          	beqz	a0,115a8 <_putc_r+0x1c>
   115a0:	05052783          	lw	a5,80(a0)
   115a4:	06078863          	beqz	a5,11614 <_putc_r+0x88>
   115a8:	00c62783          	lw	a5,12(a2)
   115ac:	fff7879b          	addiw	a5,a5,-1
   115b0:	00f62623          	sw	a5,12(a2)
   115b4:	0207c663          	bltz	a5,115e0 <_putc_r+0x54>
   115b8:	00063783          	ld	a5,0(a2)
   115bc:	00b78023          	sb	a1,0(a5)
   115c0:	00063783          	ld	a5,0(a2)
   115c4:	01813083          	ld	ra,24(sp)
   115c8:	00178713          	addi	a4,a5,1
   115cc:	00e63023          	sd	a4,0(a2)
   115d0:	0007c503          	lbu	a0,0(a5)
   115d4:	01013403          	ld	s0,16(sp)
   115d8:	02010113          	addi	sp,sp,32
   115dc:	00008067          	ret
   115e0:	02862703          	lw	a4,40(a2)
   115e4:	00e7ce63          	blt	a5,a4,11600 <_putc_r+0x74>
   115e8:	00063783          	ld	a5,0(a2)
   115ec:	00a00713          	li	a4,10
   115f0:	00b78023          	sb	a1,0(a5)
   115f4:	00063783          	ld	a5,0(a2)
   115f8:	0007c583          	lbu	a1,0(a5)
   115fc:	fce594e3          	bne	a1,a4,115c4 <_putc_r+0x38>
   11600:	00040513          	mv	a0,s0
   11604:	01813083          	ld	ra,24(sp)
   11608:	01013403          	ld	s0,16(sp)
   1160c:	02010113          	addi	sp,sp,32
   11610:	32c0306f          	j	1493c <__swbuf_r>
   11614:	00c13423          	sd	a2,8(sp)
   11618:	00b13023          	sd	a1,0(sp)
   1161c:	1ac050ef          	jal	167c8 <__sinit>
   11620:	00813603          	ld	a2,8(sp)
   11624:	00013583          	ld	a1,0(sp)
   11628:	f81ff06f          	j	115a8 <_putc_r+0x1c>

000000000001162c <putc>:
   1162c:	fd010113          	addi	sp,sp,-48
   11630:	02813023          	sd	s0,32(sp)
   11634:	8181b403          	ld	s0,-2024(gp) # 24438 <_impure_ptr>
   11638:	00913c23          	sd	s1,24(sp)
   1163c:	02113423          	sd	ra,40(sp)
   11640:	00050493          	mv	s1,a0
   11644:	00040663          	beqz	s0,11650 <putc+0x24>
   11648:	05042783          	lw	a5,80(s0)
   1164c:	06078663          	beqz	a5,116b8 <putc+0x8c>
   11650:	00c5a783          	lw	a5,12(a1)
   11654:	fff7879b          	addiw	a5,a5,-1
   11658:	00f5a623          	sw	a5,12(a1)
   1165c:	0207c863          	bltz	a5,1168c <putc+0x60>
   11660:	0005b783          	ld	a5,0(a1)
   11664:	00978023          	sb	s1,0(a5)
   11668:	0005b783          	ld	a5,0(a1)
   1166c:	02813083          	ld	ra,40(sp)
   11670:	00178713          	addi	a4,a5,1
   11674:	00e5b023          	sd	a4,0(a1)
   11678:	0007c503          	lbu	a0,0(a5)
   1167c:	02013403          	ld	s0,32(sp)
   11680:	01813483          	ld	s1,24(sp)
   11684:	03010113          	addi	sp,sp,48
   11688:	00008067          	ret
   1168c:	0285a703          	lw	a4,40(a1)
   11690:	02e7ce63          	blt	a5,a4,116cc <putc+0xa0>
   11694:	0005b783          	ld	a5,0(a1)
   11698:	00a00693          	li	a3,10
   1169c:	00978023          	sb	s1,0(a5)
   116a0:	0005b783          	ld	a5,0(a1)
   116a4:	0007c703          	lbu	a4,0(a5)
   116a8:	fcd712e3          	bne	a4,a3,1166c <putc+0x40>
   116ac:	00058613          	mv	a2,a1
   116b0:	00070593          	mv	a1,a4
   116b4:	0200006f          	j	116d4 <putc+0xa8>
   116b8:	00040513          	mv	a0,s0
   116bc:	00b13423          	sd	a1,8(sp)
   116c0:	108050ef          	jal	167c8 <__sinit>
   116c4:	00813583          	ld	a1,8(sp)
   116c8:	f89ff06f          	j	11650 <putc+0x24>
   116cc:	00058613          	mv	a2,a1
   116d0:	00048593          	mv	a1,s1
   116d4:	00040513          	mv	a0,s0
   116d8:	02813083          	ld	ra,40(sp)
   116dc:	02013403          	ld	s0,32(sp)
   116e0:	01813483          	ld	s1,24(sp)
   116e4:	03010113          	addi	sp,sp,48
   116e8:	2540306f          	j	1493c <__swbuf_r>

00000000000116ec <_puts_r>:
   116ec:	fa010113          	addi	sp,sp,-96
   116f0:	04813823          	sd	s0,80(sp)
   116f4:	00050413          	mv	s0,a0
   116f8:	00058513          	mv	a0,a1
   116fc:	04913423          	sd	s1,72(sp)
   11700:	04113c23          	sd	ra,88(sp)
   11704:	00058493          	mv	s1,a1
   11708:	260000ef          	jal	11968 <strlen>
   1170c:	01043583          	ld	a1,16(s0)
   11710:	00022737          	lui	a4,0x22
   11714:	cd070713          	addi	a4,a4,-816 # 21cd0 <zeroes.4123+0x668>
   11718:	01059683          	lh	a3,16(a1)
   1171c:	02e13823          	sd	a4,48(sp)
   11720:	00100713          	li	a4,1
   11724:	02e13c23          	sd	a4,56(sp)
   11728:	02010713          	addi	a4,sp,32
   1172c:	00150613          	addi	a2,a0,1
   11730:	00e13423          	sd	a4,8(sp)
   11734:	00200713          	li	a4,2
   11738:	02913023          	sd	s1,32(sp)
   1173c:	02a13423          	sd	a0,40(sp)
   11740:	00c13c23          	sd	a2,24(sp)
   11744:	00e12823          	sw	a4,16(sp)
   11748:	03269793          	slli	a5,a3,0x32
   1174c:	0207c263          	bltz	a5,11770 <_puts_r+0x84>
   11750:	0ac5a783          	lw	a5,172(a1)
   11754:	ffffe737          	lui	a4,0xffffe
   11758:	00002637          	lui	a2,0x2
   1175c:	fff7071b          	addiw	a4,a4,-1
   11760:	00c6e6b3          	or	a3,a3,a2
   11764:	00e7f733          	and	a4,a5,a4
   11768:	00d59823          	sh	a3,16(a1)
   1176c:	0ae5a623          	sw	a4,172(a1)
   11770:	00810613          	addi	a2,sp,8
   11774:	00040513          	mv	a0,s0
   11778:	724050ef          	jal	16e9c <__sfvwrite_r>
   1177c:	05813083          	ld	ra,88(sp)
   11780:	00a03533          	snez	a0,a0
   11784:	40a0053b          	negw	a0,a0
   11788:	00a56513          	ori	a0,a0,10
   1178c:	05013403          	ld	s0,80(sp)
   11790:	04813483          	ld	s1,72(sp)
   11794:	06010113          	addi	sp,sp,96
   11798:	00008067          	ret

000000000001179c <puts>:
   1179c:	00050593          	mv	a1,a0
   117a0:	8181b503          	ld	a0,-2024(gp) # 24438 <_impure_ptr>
   117a4:	f49ff06f          	j	116ec <_puts_r>

00000000000117a8 <scanf>:
   117a8:	8181b303          	ld	t1,-2024(gp) # 24438 <_impure_ptr>
   117ac:	fa010113          	addi	sp,sp,-96
   117b0:	02c13823          	sd	a2,48(sp)
   117b4:	02d13c23          	sd	a3,56(sp)
   117b8:	04f13423          	sd	a5,72(sp)
   117bc:	02b13423          	sd	a1,40(sp)
   117c0:	04e13023          	sd	a4,64(sp)
   117c4:	05013823          	sd	a6,80(sp)
   117c8:	05113c23          	sd	a7,88(sp)
   117cc:	00833583          	ld	a1,8(t1)
   117d0:	02810793          	addi	a5,sp,40
   117d4:	00050613          	mv	a2,a0
   117d8:	00078693          	mv	a3,a5
   117dc:	00030513          	mv	a0,t1
   117e0:	00113c23          	sd	ra,24(sp)
   117e4:	00f13423          	sd	a5,8(sp)
   117e8:	108030ef          	jal	148f0 <_vfscanf_r>
   117ec:	01813083          	ld	ra,24(sp)
   117f0:	06010113          	addi	sp,sp,96
   117f4:	00008067          	ret

00000000000117f8 <_scanf_r>:
   117f8:	fb010113          	addi	sp,sp,-80
   117fc:	02c13023          	sd	a2,32(sp)
   11800:	02d13423          	sd	a3,40(sp)
   11804:	02f13c23          	sd	a5,56(sp)
   11808:	02e13823          	sd	a4,48(sp)
   1180c:	05013023          	sd	a6,64(sp)
   11810:	05113423          	sd	a7,72(sp)
   11814:	00058613          	mv	a2,a1
   11818:	00853583          	ld	a1,8(a0)
   1181c:	02010793          	addi	a5,sp,32
   11820:	00078693          	mv	a3,a5
   11824:	00113c23          	sd	ra,24(sp)
   11828:	00f13423          	sd	a5,8(sp)
   1182c:	0c4030ef          	jal	148f0 <_vfscanf_r>
   11830:	01813083          	ld	ra,24(sp)
   11834:	05010113          	addi	sp,sp,80
   11838:	00008067          	ret

000000000001183c <strcmp>:
   1183c:	00b56733          	or	a4,a0,a1
   11840:	fff00393          	li	t2,-1
   11844:	00777713          	andi	a4,a4,7
   11848:	0c071c63          	bnez	a4,11920 <strcmp+0xe4>
   1184c:	00013e17          	auipc	t3,0x13
   11850:	c34e3e03          	ld	t3,-972(t3) # 24480 <mask>
   11854:	00053603          	ld	a2,0(a0)
   11858:	0005b683          	ld	a3,0(a1)
   1185c:	01c672b3          	and	t0,a2,t3
   11860:	01c66333          	or	t1,a2,t3
   11864:	01c282b3          	add	t0,t0,t3
   11868:	0062e2b3          	or	t0,t0,t1
   1186c:	0c729e63          	bne	t0,t2,11948 <strcmp+0x10c>
   11870:	04d61663          	bne	a2,a3,118bc <strcmp+0x80>
   11874:	00853603          	ld	a2,8(a0)
   11878:	0085b683          	ld	a3,8(a1)
   1187c:	01c672b3          	and	t0,a2,t3
   11880:	01c66333          	or	t1,a2,t3
   11884:	01c282b3          	add	t0,t0,t3
   11888:	0062e2b3          	or	t0,t0,t1
   1188c:	0a729a63          	bne	t0,t2,11940 <strcmp+0x104>
   11890:	02d61663          	bne	a2,a3,118bc <strcmp+0x80>
   11894:	01053603          	ld	a2,16(a0)
   11898:	0105b683          	ld	a3,16(a1)
   1189c:	01c672b3          	and	t0,a2,t3
   118a0:	01c66333          	or	t1,a2,t3
   118a4:	01c282b3          	add	t0,t0,t3
   118a8:	0062e2b3          	or	t0,t0,t1
   118ac:	0a729463          	bne	t0,t2,11954 <strcmp+0x118>
   118b0:	01850513          	addi	a0,a0,24
   118b4:	01858593          	addi	a1,a1,24
   118b8:	f8d60ee3          	beq	a2,a3,11854 <strcmp+0x18>
   118bc:	03061713          	slli	a4,a2,0x30
   118c0:	03069793          	slli	a5,a3,0x30
   118c4:	02f71a63          	bne	a4,a5,118f8 <strcmp+0xbc>
   118c8:	02061713          	slli	a4,a2,0x20
   118cc:	02069793          	slli	a5,a3,0x20
   118d0:	02f71463          	bne	a4,a5,118f8 <strcmp+0xbc>
   118d4:	01061713          	slli	a4,a2,0x10
   118d8:	01069793          	slli	a5,a3,0x10
   118dc:	00f71e63          	bne	a4,a5,118f8 <strcmp+0xbc>
   118e0:	03065713          	srli	a4,a2,0x30
   118e4:	0306d793          	srli	a5,a3,0x30
   118e8:	40f70533          	sub	a0,a4,a5
   118ec:	0ff57593          	andi	a1,a0,255
   118f0:	02059063          	bnez	a1,11910 <strcmp+0xd4>
   118f4:	00008067          	ret
   118f8:	03075713          	srli	a4,a4,0x30
   118fc:	0307d793          	srli	a5,a5,0x30
   11900:	40f70533          	sub	a0,a4,a5
   11904:	0ff57593          	andi	a1,a0,255
   11908:	00059463          	bnez	a1,11910 <strcmp+0xd4>
   1190c:	00008067          	ret
   11910:	0ff77713          	andi	a4,a4,255
   11914:	0ff7f793          	andi	a5,a5,255
   11918:	40f70533          	sub	a0,a4,a5
   1191c:	00008067          	ret
   11920:	00054603          	lbu	a2,0(a0)
   11924:	0005c683          	lbu	a3,0(a1)
   11928:	00150513          	addi	a0,a0,1
   1192c:	00158593          	addi	a1,a1,1
   11930:	00d61463          	bne	a2,a3,11938 <strcmp+0xfc>
   11934:	fe0616e3          	bnez	a2,11920 <strcmp+0xe4>
   11938:	40d60533          	sub	a0,a2,a3
   1193c:	00008067          	ret
   11940:	00850513          	addi	a0,a0,8
   11944:	00858593          	addi	a1,a1,8
   11948:	fcd61ce3          	bne	a2,a3,11920 <strcmp+0xe4>
   1194c:	00000513          	li	a0,0
   11950:	00008067          	ret
   11954:	01050513          	addi	a0,a0,16
   11958:	01058593          	addi	a1,a1,16
   1195c:	fcd612e3          	bne	a2,a3,11920 <strcmp+0xe4>
   11960:	00000513          	li	a0,0
   11964:	00008067          	ret

0000000000011968 <strlen>:
   11968:	00757793          	andi	a5,a0,7
   1196c:	00050593          	mv	a1,a0
   11970:	06079a63          	bnez	a5,119e4 <strlen+0x7c>
   11974:	000247b7          	lui	a5,0x24
   11978:	4807b683          	ld	a3,1152(a5) # 24480 <mask>
   1197c:	fff00613          	li	a2,-1
   11980:	00850513          	addi	a0,a0,8
   11984:	ff853783          	ld	a5,-8(a0)
   11988:	00d7f733          	and	a4,a5,a3
   1198c:	00d70733          	add	a4,a4,a3
   11990:	00d7e7b3          	or	a5,a5,a3
   11994:	00f767b3          	or	a5,a4,a5
   11998:	fec784e3          	beq	a5,a2,11980 <strlen+0x18>
   1199c:	ff854783          	lbu	a5,-8(a0)
   119a0:	40b505b3          	sub	a1,a0,a1
   119a4:	06078263          	beqz	a5,11a08 <strlen+0xa0>
   119a8:	ff954783          	lbu	a5,-7(a0)
   119ac:	04078a63          	beqz	a5,11a00 <strlen+0x98>
   119b0:	ffa54783          	lbu	a5,-6(a0)
   119b4:	06078263          	beqz	a5,11a18 <strlen+0xb0>
   119b8:	ffb54783          	lbu	a5,-5(a0)
   119bc:	04078a63          	beqz	a5,11a10 <strlen+0xa8>
   119c0:	ffc54783          	lbu	a5,-4(a0)
   119c4:	ffd54703          	lbu	a4,-3(a0)
   119c8:	ffe54683          	lbu	a3,-2(a0)
   119cc:	04078a63          	beqz	a5,11a20 <strlen+0xb8>
   119d0:	04070c63          	beqz	a4,11a28 <strlen+0xc0>
   119d4:	fff58513          	addi	a0,a1,-1
   119d8:	04068c63          	beqz	a3,11a30 <strlen+0xc8>
   119dc:	00008067          	ret
   119e0:	f8070ae3          	beqz	a4,11974 <strlen+0xc>
   119e4:	00054783          	lbu	a5,0(a0)
   119e8:	00150513          	addi	a0,a0,1
   119ec:	00757713          	andi	a4,a0,7
   119f0:	fe0798e3          	bnez	a5,119e0 <strlen+0x78>
   119f4:	40b50533          	sub	a0,a0,a1
   119f8:	fff50513          	addi	a0,a0,-1
   119fc:	00008067          	ret
   11a00:	ff958513          	addi	a0,a1,-7
   11a04:	00008067          	ret
   11a08:	ff858513          	addi	a0,a1,-8
   11a0c:	00008067          	ret
   11a10:	ffb58513          	addi	a0,a1,-5
   11a14:	00008067          	ret
   11a18:	ffa58513          	addi	a0,a1,-6
   11a1c:	00008067          	ret
   11a20:	ffc58513          	addi	a0,a1,-4
   11a24:	00008067          	ret
   11a28:	ffd58513          	addi	a0,a1,-3
   11a2c:	00008067          	ret
   11a30:	ffe58513          	addi	a0,a1,-2
   11a34:	00008067          	ret

0000000000011a38 <_vfprintf_r>:
   11a38:	e1010113          	addi	sp,sp,-496
   11a3c:	1e113423          	sd	ra,488(sp)
   11a40:	1d313423          	sd	s3,456(sp)
   11a44:	1d413023          	sd	s4,448(sp)
   11a48:	1b713423          	sd	s7,424(sp)
   11a4c:	00058a13          	mv	s4,a1
   11a50:	00060993          	mv	s3,a2
   11a54:	02d13423          	sd	a3,40(sp)
   11a58:	1e813023          	sd	s0,480(sp)
   11a5c:	1c913c23          	sd	s1,472(sp)
   11a60:	1d213823          	sd	s2,464(sp)
   11a64:	1b513c23          	sd	s5,440(sp)
   11a68:	1b613823          	sd	s6,432(sp)
   11a6c:	1b813023          	sd	s8,416(sp)
   11a70:	19913c23          	sd	s9,408(sp)
   11a74:	19a13823          	sd	s10,400(sp)
   11a78:	19b13423          	sd	s11,392(sp)
   11a7c:	16813c27          	fsd	fs0,376(sp)
   11a80:	00050b93          	mv	s7,a0
   11a84:	30d050ef          	jal	17590 <_localeconv_r>
   11a88:	00053783          	ld	a5,0(a0)
   11a8c:	00078513          	mv	a0,a5
   11a90:	06f13023          	sd	a5,96(sp)
   11a94:	ed5ff0ef          	jal	11968 <strlen>
   11a98:	06a13423          	sd	a0,104(sp)
   11a9c:	000b8663          	beqz	s7,11aa8 <_vfprintf_r+0x70>
   11aa0:	050ba783          	lw	a5,80(s7)
   11aa4:	2e078c63          	beqz	a5,11d9c <_vfprintf_r+0x364>
   11aa8:	010a1683          	lh	a3,16(s4)
   11aac:	03069793          	slli	a5,a3,0x30
   11ab0:	0307d793          	srli	a5,a5,0x30
   11ab4:	03279713          	slli	a4,a5,0x32
   11ab8:	02074a63          	bltz	a4,11aec <_vfprintf_r+0xb4>
   11abc:	000027b7          	lui	a5,0x2
   11ac0:	0aca2603          	lw	a2,172(s4)
   11ac4:	00f6e7b3          	or	a5,a3,a5
   11ac8:	0107979b          	slliw	a5,a5,0x10
   11acc:	ffffe737          	lui	a4,0xffffe
   11ad0:	4107d79b          	sraiw	a5,a5,0x10
   11ad4:	fff7071b          	addiw	a4,a4,-1
   11ad8:	00e67733          	and	a4,a2,a4
   11adc:	00fa1823          	sh	a5,16(s4)
   11ae0:	03079793          	slli	a5,a5,0x30
   11ae4:	0aea2623          	sw	a4,172(s4)
   11ae8:	0307d793          	srli	a5,a5,0x30
   11aec:	0087f713          	andi	a4,a5,8
   11af0:	1e070063          	beqz	a4,11cd0 <_vfprintf_r+0x298>
   11af4:	018a3703          	ld	a4,24(s4)
   11af8:	1c070c63          	beqz	a4,11cd0 <_vfprintf_r+0x298>
   11afc:	01a7f793          	andi	a5,a5,26
   11b00:	00a00713          	li	a4,10
   11b04:	1ee78863          	beq	a5,a4,11cf4 <_vfprintf_r+0x2bc>
   11b08:	000207b7          	lui	a5,0x20
   11b0c:	77878793          	addi	a5,a5,1912 # 20778 <sulp+0x68>
   11b10:	0f010b13          	addi	s6,sp,240
   11b14:	02f13823          	sd	a5,48(sp)
   11b18:	0ef10793          	addi	a5,sp,239
   11b1c:	00021ab7          	lui	s5,0x21
   11b20:	000214b7          	lui	s1,0x21
   11b24:	40fb07b3          	sub	a5,s6,a5
   11b28:	04013c23          	sd	zero,88(sp)
   11b2c:	0b613823          	sd	s6,176(sp)
   11b30:	0c013023          	sd	zero,192(sp)
   11b34:	0a012c23          	sw	zero,184(sp)
   11b38:	06012823          	sw	zero,112(sp)
   11b3c:	000b0893          	mv	a7,s6
   11b40:	02013c23          	sd	zero,56(sp)
   11b44:	06012a23          	sw	zero,116(sp)
   11b48:	00012e23          	sw	zero,28(sp)
   11b4c:	8e0a8a93          	addi	s5,s5,-1824 # 208e0 <blanks.4193>
   11b50:	8f048493          	addi	s1,s1,-1808 # 208f0 <zeroes.4194>
   11b54:	06f13c23          	sd	a5,120(sp)
   11b58:	0009c783          	lbu	a5,0(s3)
   11b5c:	0e0782e3          	beqz	a5,12440 <_vfprintf_r+0xa08>
   11b60:	02500713          	li	a4,37
   11b64:	00098413          	mv	s0,s3
   11b68:	00e79663          	bne	a5,a4,11b74 <_vfprintf_r+0x13c>
   11b6c:	0580006f          	j	11bc4 <_vfprintf_r+0x18c>
   11b70:	00e78863          	beq	a5,a4,11b80 <_vfprintf_r+0x148>
   11b74:	00140413          	addi	s0,s0,1
   11b78:	00044783          	lbu	a5,0(s0)
   11b7c:	fe079ae3          	bnez	a5,11b70 <_vfprintf_r+0x138>
   11b80:	4134093b          	subw	s2,s0,s3
   11b84:	04090063          	beqz	s2,11bc4 <_vfprintf_r+0x18c>
   11b88:	0c013703          	ld	a4,192(sp)
   11b8c:	0b812783          	lw	a5,184(sp)
   11b90:	00090693          	mv	a3,s2
   11b94:	00d70733          	add	a4,a4,a3
   11b98:	0017879b          	addiw	a5,a5,1
   11b9c:	0138b023          	sd	s3,0(a7)
   11ba0:	00d8b423          	sd	a3,8(a7)
   11ba4:	0ce13023          	sd	a4,192(sp)
   11ba8:	0af12c23          	sw	a5,184(sp)
   11bac:	00700713          	li	a4,7
   11bb0:	01088893          	addi	a7,a7,16
   11bb4:	16f74063          	blt	a4,a5,11d14 <_vfprintf_r+0x2dc>
   11bb8:	01c12783          	lw	a5,28(sp)
   11bbc:	012787bb          	addw	a5,a5,s2
   11bc0:	00f12e23          	sw	a5,28(sp)
   11bc4:	00044783          	lbu	a5,0(s0)
   11bc8:	16078463          	beqz	a5,11d30 <_vfprintf_r+0x2f8>
   11bcc:	00140993          	addi	s3,s0,1
   11bd0:	080107a3          	sb	zero,143(sp)
   11bd4:	00000613          	li	a2,0
   11bd8:	00000593          	li	a1,0
   11bdc:	fff00413          	li	s0,-1
   11be0:	00012c23          	sw	zero,24(sp)
   11be4:	00000c13          	li	s8,0
   11be8:	05800713          	li	a4,88
   11bec:	00900693          	li	a3,9
   11bf0:	02a00513          	li	a0,42
   11bf4:	0009cd03          	lbu	s10,0(s3)
   11bf8:	00198993          	addi	s3,s3,1
   11bfc:	fe0d079b          	addiw	a5,s10,-32
   11c00:	1cf762e3          	bltu	a4,a5,125c4 <_vfprintf_r+0xb8c>
   11c04:	03013803          	ld	a6,48(sp)
   11c08:	02079793          	slli	a5,a5,0x20
   11c0c:	01e7d793          	srli	a5,a5,0x1e
   11c10:	010787b3          	add	a5,a5,a6
   11c14:	0007a783          	lw	a5,0(a5)
   11c18:	00078067          	jr	a5
   11c1c:	010c6c13          	ori	s8,s8,16
   11c20:	fd5ff06f          	j	11bf4 <_vfprintf_r+0x1bc>
   11c24:	02813783          	ld	a5,40(sp)
   11c28:	0007a803          	lw	a6,0(a5)
   11c2c:	00878793          	addi	a5,a5,8
   11c30:	02f13423          	sd	a5,40(sp)
   11c34:	01012c23          	sw	a6,24(sp)
   11c38:	fa085ee3          	bgez	a6,11bf4 <_vfprintf_r+0x1bc>
   11c3c:	410007bb          	negw	a5,a6
   11c40:	00f12c23          	sw	a5,24(sp)
   11c44:	004c6c13          	ori	s8,s8,4
   11c48:	fadff06f          	j	11bf4 <_vfprintf_r+0x1bc>
   11c4c:	03000793          	li	a5,48
   11c50:	08f10823          	sb	a5,144(sp)
   11c54:	07800793          	li	a5,120
   11c58:	08f108a3          	sb	a5,145(sp)
   11c5c:	02813783          	ld	a5,40(sp)
   11c60:	080107a3          	sb	zero,143(sp)
   11c64:	002c6693          	ori	a3,s8,2
   11c68:	00878713          	addi	a4,a5,8
   11c6c:	0007b783          	ld	a5,0(a5)
   11c70:	180444e3          	bltz	s0,125f8 <_vfprintf_r+0xbc0>
   11c74:	f7fc7c13          	andi	s8,s8,-129
   11c78:	02e13423          	sd	a4,40(sp)
   11c7c:	002c6c13          	ori	s8,s8,2
   11c80:	120796e3          	bnez	a5,125ac <_vfprintf_r+0xb74>
   11c84:	000227b7          	lui	a5,0x22
   11c88:	d1078793          	addi	a5,a5,-752 # 21d10 <zeroes.4123+0x6a8>
   11c8c:	02f13c23          	sd	a5,56(sp)
   11c90:	07800d13          	li	s10,120
   11c94:	00000613          	li	a2,0
   11c98:	7e040463          	beqz	s0,12480 <_vfprintf_r+0xa48>
   11c9c:	00000793          	li	a5,0
   11ca0:	000b0913          	mv	s2,s6
   11ca4:	03813683          	ld	a3,56(sp)
   11ca8:	00f7f713          	andi	a4,a5,15
   11cac:	fff90913          	addi	s2,s2,-1
   11cb0:	00e68733          	add	a4,a3,a4
   11cb4:	00074703          	lbu	a4,0(a4) # ffffffffffffe000 <_end+0xfffffffffffd7208>
   11cb8:	0047d793          	srli	a5,a5,0x4
   11cbc:	00e90023          	sb	a4,0(s2)
   11cc0:	fe0792e3          	bnez	a5,11ca4 <_vfprintf_r+0x26c>
   11cc4:	412b07b3          	sub	a5,s6,s2
   11cc8:	02f12023          	sw	a5,32(sp)
   11ccc:	1680006f          	j	11e34 <_vfprintf_r+0x3fc>
   11cd0:	000a0593          	mv	a1,s4
   11cd4:	000b8513          	mv	a0,s7
   11cd8:	5ed020ef          	jal	14ac4 <__swsetup_r>
   11cdc:	00050463          	beqz	a0,11ce4 <_vfprintf_r+0x2ac>
   11ce0:	3940106f          	j	13074 <_vfprintf_r+0x163c>
   11ce4:	010a5783          	lhu	a5,16(s4)
   11ce8:	00a00713          	li	a4,10
   11cec:	01a7f793          	andi	a5,a5,26
   11cf0:	e0e79ce3          	bne	a5,a4,11b08 <_vfprintf_r+0xd0>
   11cf4:	012a1783          	lh	a5,18(s4)
   11cf8:	e007c8e3          	bltz	a5,11b08 <_vfprintf_r+0xd0>
   11cfc:	02813683          	ld	a3,40(sp)
   11d00:	00098613          	mv	a2,s3
   11d04:	000a0593          	mv	a1,s4
   11d08:	000b8513          	mv	a0,s7
   11d0c:	1c9010ef          	jal	136d4 <__sbprintf>
   11d10:	04c0006f          	j	11d5c <_vfprintf_r+0x324>
   11d14:	0b010613          	addi	a2,sp,176
   11d18:	000a0593          	mv	a1,s4
   11d1c:	000b8513          	mv	a0,s7
   11d20:	3080b0ef          	jal	1d028 <__sprint_r>
   11d24:	02051263          	bnez	a0,11d48 <_vfprintf_r+0x310>
   11d28:	000b0893          	mv	a7,s6
   11d2c:	e8dff06f          	j	11bb8 <_vfprintf_r+0x180>
   11d30:	0c013783          	ld	a5,192(sp)
   11d34:	00078a63          	beqz	a5,11d48 <_vfprintf_r+0x310>
   11d38:	0b010613          	addi	a2,sp,176
   11d3c:	000a0593          	mv	a1,s4
   11d40:	000b8513          	mv	a0,s7
   11d44:	2e40b0ef          	jal	1d028 <__sprint_r>
   11d48:	010a5783          	lhu	a5,16(s4)
   11d4c:	0407f793          	andi	a5,a5,64
   11d50:	00078463          	beqz	a5,11d58 <_vfprintf_r+0x320>
   11d54:	3200106f          	j	13074 <_vfprintf_r+0x163c>
   11d58:	01c12503          	lw	a0,28(sp)
   11d5c:	1e813083          	ld	ra,488(sp)
   11d60:	1e013403          	ld	s0,480(sp)
   11d64:	1d813483          	ld	s1,472(sp)
   11d68:	1d013903          	ld	s2,464(sp)
   11d6c:	1c813983          	ld	s3,456(sp)
   11d70:	1c013a03          	ld	s4,448(sp)
   11d74:	1b813a83          	ld	s5,440(sp)
   11d78:	1b013b03          	ld	s6,432(sp)
   11d7c:	1a813b83          	ld	s7,424(sp)
   11d80:	1a013c03          	ld	s8,416(sp)
   11d84:	19813c83          	ld	s9,408(sp)
   11d88:	19013d03          	ld	s10,400(sp)
   11d8c:	18813d83          	ld	s11,392(sp)
   11d90:	17813407          	fld	fs0,376(sp)
   11d94:	1f010113          	addi	sp,sp,496
   11d98:	00008067          	ret
   11d9c:	000b8513          	mv	a0,s7
   11da0:	229040ef          	jal	167c8 <__sinit>
   11da4:	d05ff06f          	j	11aa8 <_vfprintf_r+0x70>
   11da8:	00100613          	li	a2,1
   11dac:	02b00593          	li	a1,43
   11db0:	e45ff06f          	j	11bf4 <_vfprintf_r+0x1bc>
   11db4:	00060463          	beqz	a2,11dbc <_vfprintf_r+0x384>
   11db8:	0d90106f          	j	13690 <_vfprintf_r+0x1c58>
   11dbc:	010c7793          	andi	a5,s8,16
   11dc0:	22078263          	beqz	a5,11fe4 <_vfprintf_r+0x5ac>
   11dc4:	02813783          	ld	a5,40(sp)
   11dc8:	080107a3          	sb	zero,143(sp)
   11dcc:	00878713          	addi	a4,a5,8
   11dd0:	0007b783          	ld	a5,0(a5)
   11dd4:	22044663          	bltz	s0,12000 <_vfprintf_r+0x5c8>
   11dd8:	02e13423          	sd	a4,40(sp)
   11ddc:	f7fc7c13          	andi	s8,s8,-129
   11de0:	22079663          	bnez	a5,1200c <_vfprintf_r+0x5d4>
   11de4:	00000613          	li	a2,0
   11de8:	00000793          	li	a5,0
   11dec:	00041463          	bnez	s0,11df4 <_vfprintf_r+0x3bc>
   11df0:	3680106f          	j	13158 <_vfprintf_r+0x1720>
   11df4:	000b0913          	mv	s2,s6
   11df8:	0077f713          	andi	a4,a5,7
   11dfc:	fff90913          	addi	s2,s2,-1
   11e00:	0307071b          	addiw	a4,a4,48
   11e04:	00e90023          	sb	a4,0(s2)
   11e08:	0037d793          	srli	a5,a5,0x3
   11e0c:	fe0796e3          	bnez	a5,11df8 <_vfprintf_r+0x3c0>
   11e10:	001c7793          	andi	a5,s8,1
   11e14:	ea0788e3          	beqz	a5,11cc4 <_vfprintf_r+0x28c>
   11e18:	03000793          	li	a5,48
   11e1c:	eaf704e3          	beq	a4,a5,11cc4 <_vfprintf_r+0x28c>
   11e20:	fff90713          	addi	a4,s2,-1
   11e24:	40eb06b3          	sub	a3,s6,a4
   11e28:	fef90fa3          	sb	a5,-1(s2)
   11e2c:	02d12023          	sw	a3,32(sp)
   11e30:	00070913          	mv	s2,a4
   11e34:	02012783          	lw	a5,32(sp)
   11e38:	00078d93          	mv	s11,a5
   11e3c:	0087d463          	ble	s0,a5,11e44 <_vfprintf_r+0x40c>
   11e40:	00040d93          	mv	s11,s0
   11e44:	01b12423          	sw	s11,8(sp)
   11e48:	04012623          	sw	zero,76(sp)
   11e4c:	2a060263          	beqz	a2,120f0 <_vfprintf_r+0x6b8>
   11e50:	00812783          	lw	a5,8(sp)
   11e54:	0017879b          	addiw	a5,a5,1
   11e58:	00f12423          	sw	a5,8(sp)
   11e5c:	2940006f          	j	120f0 <_vfprintf_r+0x6b8>
   11e60:	0009cd03          	lbu	s10,0(s3)
   11e64:	00198993          	addi	s3,s3,1
   11e68:	00ad1463          	bne	s10,a0,11e70 <_vfprintf_r+0x438>
   11e6c:	75c0106f          	j	135c8 <_vfprintf_r+0x1b90>
   11e70:	fd0d079b          	addiw	a5,s10,-48
   11e74:	00000413          	li	s0,0
   11e78:	d8f6e2e3          	bltu	a3,a5,11bfc <_vfprintf_r+0x1c4>
   11e7c:	00198993          	addi	s3,s3,1
   11e80:	fff9cd03          	lbu	s10,-1(s3)
   11e84:	0014181b          	slliw	a6,s0,0x1
   11e88:	0034141b          	slliw	s0,s0,0x3
   11e8c:	0088043b          	addw	s0,a6,s0
   11e90:	00f4043b          	addw	s0,s0,a5
   11e94:	fd0d079b          	addiw	a5,s10,-48
   11e98:	fef6f2e3          	bleu	a5,a3,11e7c <_vfprintf_r+0x444>
   11e9c:	d60450e3          	bgez	s0,11bfc <_vfprintf_r+0x1c4>
   11ea0:	fff00413          	li	s0,-1
   11ea4:	d59ff06f          	j	11bfc <_vfprintf_r+0x1c4>
   11ea8:	080c6c13          	ori	s8,s8,128
   11eac:	d49ff06f          	j	11bf4 <_vfprintf_r+0x1bc>
   11eb0:	d40592e3          	bnez	a1,11bf4 <_vfprintf_r+0x1bc>
   11eb4:	00100613          	li	a2,1
   11eb8:	02000593          	li	a1,32
   11ebc:	d39ff06f          	j	11bf4 <_vfprintf_r+0x1bc>
   11ec0:	001c6c13          	ori	s8,s8,1
   11ec4:	d31ff06f          	j	11bf4 <_vfprintf_r+0x1bc>
   11ec8:	02813783          	ld	a5,40(sp)
   11ecc:	080107a3          	sb	zero,143(sp)
   11ed0:	0007b903          	ld	s2,0(a5)
   11ed4:	00878c93          	addi	s9,a5,8
   11ed8:	00091463          	bnez	s2,11ee0 <_vfprintf_r+0x4a8>
   11edc:	39c0106f          	j	13278 <_vfprintf_r+0x1840>
   11ee0:	01113023          	sd	a7,0(sp)
   11ee4:	00045463          	bgez	s0,11eec <_vfprintf_r+0x4b4>
   11ee8:	3240106f          	j	1320c <_vfprintf_r+0x17d4>
   11eec:	00040613          	mv	a2,s0
   11ef0:	00000593          	li	a1,0
   11ef4:	00090513          	mv	a0,s2
   11ef8:	2c9050ef          	jal	179c0 <memchr>
   11efc:	00013883          	ld	a7,0(sp)
   11f00:	00051463          	bnez	a0,11f08 <_vfprintf_r+0x4d0>
   11f04:	4c00106f          	j	133c4 <_vfprintf_r+0x198c>
   11f08:	412507bb          	subw	a5,a0,s2
   11f0c:	02f12023          	sw	a5,32(sp)
   11f10:	00078d93          	mv	s11,a5
   11f14:	0007d463          	bgez	a5,11f1c <_vfprintf_r+0x4e4>
   11f18:	3140106f          	j	1322c <_vfprintf_r+0x17f4>
   11f1c:	08f14603          	lbu	a2,143(sp)
   11f20:	01b12423          	sw	s11,8(sp)
   11f24:	03913423          	sd	s9,40(sp)
   11f28:	00000413          	li	s0,0
   11f2c:	04012623          	sw	zero,76(sp)
   11f30:	f1dff06f          	j	11e4c <_vfprintf_r+0x414>
   11f34:	00060463          	beqz	a2,11f3c <_vfprintf_r+0x504>
   11f38:	7800106f          	j	136b8 <_vfprintf_r+0x1c80>
   11f3c:	010c7793          	andi	a5,s8,16
   11f40:	0e078463          	beqz	a5,12028 <_vfprintf_r+0x5f0>
   11f44:	02813783          	ld	a5,40(sp)
   11f48:	080107a3          	sb	zero,143(sp)
   11f4c:	00878713          	addi	a4,a5,8
   11f50:	0007b783          	ld	a5,0(a5)
   11f54:	0e044863          	bltz	s0,12044 <_vfprintf_r+0x60c>
   11f58:	02e13423          	sd	a4,40(sp)
   11f5c:	f7fc7c13          	andi	s8,s8,-129
   11f60:	00000613          	li	a2,0
   11f64:	50078c63          	beqz	a5,1247c <_vfprintf_r+0xa44>
   11f68:	00900713          	li	a4,9
   11f6c:	000b0913          	mv	s2,s6
   11f70:	00a00693          	li	a3,10
   11f74:	40f770e3          	bleu	a5,a4,12b74 <_vfprintf_r+0x113c>
   11f78:	02d7f733          	remu	a4,a5,a3
   11f7c:	fff90913          	addi	s2,s2,-1
   11f80:	02d7d7b3          	divu	a5,a5,a3
   11f84:	0307071b          	addiw	a4,a4,48
   11f88:	00e90023          	sb	a4,0(s2)
   11f8c:	fe0796e3          	bnez	a5,11f78 <_vfprintf_r+0x540>
   11f90:	412b07b3          	sub	a5,s6,s2
   11f94:	02f12023          	sw	a5,32(sp)
   11f98:	e9dff06f          	j	11e34 <_vfprintf_r+0x3fc>
   11f9c:	00012c23          	sw	zero,24(sp)
   11fa0:	fd0d079b          	addiw	a5,s10,-48
   11fa4:	01812303          	lw	t1,24(sp)
   11fa8:	00198993          	addi	s3,s3,1
   11fac:	fff9cd03          	lbu	s10,-1(s3)
   11fb0:	0013181b          	slliw	a6,t1,0x1
   11fb4:	00331c9b          	slliw	s9,t1,0x3
   11fb8:	01980cbb          	addw	s9,a6,s9
   11fbc:	019787bb          	addw	a5,a5,s9
   11fc0:	00f12c23          	sw	a5,24(sp)
   11fc4:	fd0d079b          	addiw	a5,s10,-48
   11fc8:	fcf6fee3          	bleu	a5,a3,11fa4 <_vfprintf_r+0x56c>
   11fcc:	c31ff06f          	j	11bfc <_vfprintf_r+0x1c4>
   11fd0:	00060463          	beqz	a2,11fd8 <_vfprintf_r+0x5a0>
   11fd4:	6d80106f          	j	136ac <_vfprintf_r+0x1c74>
   11fd8:	010c6c13          	ori	s8,s8,16
   11fdc:	010c7793          	andi	a5,s8,16
   11fe0:	de0792e3          	bnez	a5,11dc4 <_vfprintf_r+0x38c>
   11fe4:	040c7793          	andi	a5,s8,64
   11fe8:	080107a3          	sb	zero,143(sp)
   11fec:	580780e3          	beqz	a5,12d6c <_vfprintf_r+0x1334>
   11ff0:	02813783          	ld	a5,40(sp)
   11ff4:	00878713          	addi	a4,a5,8
   11ff8:	0007d783          	lhu	a5,0(a5)
   11ffc:	dc045ee3          	bgez	s0,11dd8 <_vfprintf_r+0x3a0>
   12000:	02e13423          	sd	a4,40(sp)
   12004:	00000613          	li	a2,0
   12008:	60078a63          	beqz	a5,1261c <_vfprintf_r+0xbe4>
   1200c:	00000613          	li	a2,0
   12010:	de5ff06f          	j	11df4 <_vfprintf_r+0x3bc>
   12014:	00060463          	beqz	a2,1201c <_vfprintf_r+0x5e4>
   12018:	6880106f          	j	136a0 <_vfprintf_r+0x1c68>
   1201c:	010c6c13          	ori	s8,s8,16
   12020:	010c7793          	andi	a5,s8,16
   12024:	f20790e3          	bnez	a5,11f44 <_vfprintf_r+0x50c>
   12028:	040c7793          	andi	a5,s8,64
   1202c:	080107a3          	sb	zero,143(sp)
   12030:	500780e3          	beqz	a5,12d30 <_vfprintf_r+0x12f8>
   12034:	02813783          	ld	a5,40(sp)
   12038:	00878713          	addi	a4,a5,8
   1203c:	0007d783          	lhu	a5,0(a5)
   12040:	f0045ce3          	bgez	s0,11f58 <_vfprintf_r+0x520>
   12044:	02e13423          	sd	a4,40(sp)
   12048:	00000613          	li	a2,0
   1204c:	f0079ee3          	bnez	a5,11f68 <_vfprintf_r+0x530>
   12050:	00100793          	li	a5,1
   12054:	5c80006f          	j	1261c <_vfprintf_r+0xbe4>
   12058:	00060463          	beqz	a2,12060 <_vfprintf_r+0x628>
   1205c:	63c0106f          	j	13698 <_vfprintf_r+0x1c60>
   12060:	000227b7          	lui	a5,0x22
   12064:	cf878793          	addi	a5,a5,-776 # 21cf8 <zeroes.4123+0x690>
   12068:	02f13c23          	sd	a5,56(sp)
   1206c:	010c7793          	andi	a5,s8,16
   12070:	4c078263          	beqz	a5,12534 <_vfprintf_r+0xafc>
   12074:	02813703          	ld	a4,40(sp)
   12078:	00073783          	ld	a5,0(a4)
   1207c:	00870713          	addi	a4,a4,8
   12080:	02e13423          	sd	a4,40(sp)
   12084:	001c7713          	andi	a4,s8,1
   12088:	120706e3          	beqz	a4,129b4 <_vfprintf_r+0xf7c>
   1208c:	6a078ee3          	beqz	a5,12f48 <_vfprintf_r+0x1510>
   12090:	03000713          	li	a4,48
   12094:	08e10823          	sb	a4,144(sp)
   12098:	09a108a3          	sb	s10,145(sp)
   1209c:	080107a3          	sb	zero,143(sp)
   120a0:	002c6713          	ori	a4,s8,2
   120a4:	00045463          	bgez	s0,120ac <_vfprintf_r+0x674>
   120a8:	2140106f          	j	132bc <_vfprintf_r+0x1884>
   120ac:	f7fc7c13          	andi	s8,s8,-129
   120b0:	002c6c13          	ori	s8,s8,2
   120b4:	00000613          	li	a2,0
   120b8:	be9ff06f          	j	11ca0 <_vfprintf_r+0x268>
   120bc:	02813703          	ld	a4,40(sp)
   120c0:	00100693          	li	a3,1
   120c4:	00d12423          	sw	a3,8(sp)
   120c8:	00072783          	lw	a5,0(a4)
   120cc:	080107a3          	sb	zero,143(sp)
   120d0:	00000613          	li	a2,0
   120d4:	0cf10423          	sb	a5,200(sp)
   120d8:	00870793          	addi	a5,a4,8
   120dc:	02f13423          	sd	a5,40(sp)
   120e0:	02d12023          	sw	a3,32(sp)
   120e4:	00000413          	li	s0,0
   120e8:	04012623          	sw	zero,76(sp)
   120ec:	0c810913          	addi	s2,sp,200
   120f0:	002c7793          	andi	a5,s8,2
   120f4:	04f12023          	sw	a5,64(sp)
   120f8:	00078863          	beqz	a5,12108 <_vfprintf_r+0x6d0>
   120fc:	00812783          	lw	a5,8(sp)
   12100:	0027879b          	addiw	a5,a5,2
   12104:	00f12423          	sw	a5,8(sp)
   12108:	084c7793          	andi	a5,s8,132
   1210c:	04f12423          	sw	a5,72(sp)
   12110:	52079263          	bnez	a5,12634 <_vfprintf_r+0xbfc>
   12114:	01812783          	lw	a5,24(sp)
   12118:	00812703          	lw	a4,8(sp)
   1211c:	40e78cbb          	subw	s9,a5,a4
   12120:	51905a63          	blez	s9,12634 <_vfprintf_r+0xbfc>
   12124:	01000793          	li	a5,16
   12128:	0197c463          	blt	a5,s9,12130 <_vfprintf_r+0x6f8>
   1212c:	1080106f          	j	13234 <_vfprintf_r+0x17fc>
   12130:	01000813          	li	a6,16
   12134:	0c013783          	ld	a5,192(sp)
   12138:	0b812703          	lw	a4,184(sp)
   1213c:	05513823          	sd	s5,80(sp)
   12140:	00700313          	li	t1,7
   12144:	00080d93          	mv	s11,a6
   12148:	00c0006f          	j	12154 <_vfprintf_r+0x71c>
   1214c:	ff0c8c9b          	addiw	s9,s9,-16
   12150:	059dde63          	ble	s9,s11,121ac <_vfprintf_r+0x774>
   12154:	01078793          	addi	a5,a5,16
   12158:	0017071b          	addiw	a4,a4,1
   1215c:	0158b023          	sd	s5,0(a7)
   12160:	0108b423          	sd	a6,8(a7)
   12164:	0cf13023          	sd	a5,192(sp)
   12168:	0ae12c23          	sw	a4,184(sp)
   1216c:	01088893          	addi	a7,a7,16
   12170:	fce35ee3          	ble	a4,t1,1214c <_vfprintf_r+0x714>
   12174:	0b010613          	addi	a2,sp,176
   12178:	000a0593          	mv	a1,s4
   1217c:	000b8513          	mv	a0,s7
   12180:	00613823          	sd	t1,16(sp)
   12184:	01013023          	sd	a6,0(sp)
   12188:	6a10a0ef          	jal	1d028 <__sprint_r>
   1218c:	ba051ee3          	bnez	a0,11d48 <_vfprintf_r+0x310>
   12190:	ff0c8c9b          	addiw	s9,s9,-16
   12194:	0c013783          	ld	a5,192(sp)
   12198:	0b812703          	lw	a4,184(sp)
   1219c:	000b0893          	mv	a7,s6
   121a0:	01013303          	ld	t1,16(sp)
   121a4:	00013803          	ld	a6,0(sp)
   121a8:	fb9dc6e3          	blt	s11,s9,12154 <_vfprintf_r+0x71c>
   121ac:	05013603          	ld	a2,80(sp)
   121b0:	00fc87b3          	add	a5,s9,a5
   121b4:	0017071b          	addiw	a4,a4,1
   121b8:	00c8b023          	sd	a2,0(a7)
   121bc:	0198b423          	sd	s9,8(a7)
   121c0:	0cf13023          	sd	a5,192(sp)
   121c4:	0ae12c23          	sw	a4,184(sp)
   121c8:	00700693          	li	a3,7
   121cc:	0ce6cae3          	blt	a3,a4,12aa0 <_vfprintf_r+0x1068>
   121d0:	08f14603          	lbu	a2,143(sp)
   121d4:	01088893          	addi	a7,a7,16
   121d8:	02060a63          	beqz	a2,1220c <_vfprintf_r+0x7d4>
   121dc:	0b812703          	lw	a4,184(sp)
   121e0:	08f10693          	addi	a3,sp,143
   121e4:	00d8b023          	sd	a3,0(a7)
   121e8:	00178793          	addi	a5,a5,1
   121ec:	00100693          	li	a3,1
   121f0:	0017071b          	addiw	a4,a4,1
   121f4:	00d8b423          	sd	a3,8(a7)
   121f8:	0cf13023          	sd	a5,192(sp)
   121fc:	0ae12c23          	sw	a4,184(sp)
   12200:	00700693          	li	a3,7
   12204:	01088893          	addi	a7,a7,16
   12208:	76e6c663          	blt	a3,a4,12974 <_vfprintf_r+0xf3c>
   1220c:	04012703          	lw	a4,64(sp)
   12210:	02070a63          	beqz	a4,12244 <_vfprintf_r+0x80c>
   12214:	0b812703          	lw	a4,184(sp)
   12218:	09010693          	addi	a3,sp,144
   1221c:	00d8b023          	sd	a3,0(a7)
   12220:	00278793          	addi	a5,a5,2
   12224:	00200693          	li	a3,2
   12228:	0017071b          	addiw	a4,a4,1
   1222c:	00d8b423          	sd	a3,8(a7)
   12230:	0cf13023          	sd	a5,192(sp)
   12234:	0ae12c23          	sw	a4,184(sp)
   12238:	00700693          	li	a3,7
   1223c:	01088893          	addi	a7,a7,16
   12240:	74e6ca63          	blt	a3,a4,12994 <_vfprintf_r+0xf5c>
   12244:	04812683          	lw	a3,72(sp)
   12248:	08000713          	li	a4,128
   1224c:	5ee68663          	beq	a3,a4,12838 <_vfprintf_r+0xe00>
   12250:	02012703          	lw	a4,32(sp)
   12254:	40e4043b          	subw	s0,s0,a4
   12258:	0c805063          	blez	s0,12318 <_vfprintf_r+0x8e0>
   1225c:	01000713          	li	a4,16
   12260:	4e875ce3          	ble	s0,a4,12f58 <_vfprintf_r+0x1520>
   12264:	01000c93          	li	s9,16
   12268:	0b812703          	lw	a4,184(sp)
   1226c:	00913823          	sd	s1,16(sp)
   12270:	00700813          	li	a6,7
   12274:	000c8d93          	mv	s11,s9
   12278:	00c0006f          	j	12284 <_vfprintf_r+0x84c>
   1227c:	ff04041b          	addiw	s0,s0,-16
   12280:	048dda63          	ble	s0,s11,122d4 <_vfprintf_r+0x89c>
   12284:	01078793          	addi	a5,a5,16
   12288:	0017071b          	addiw	a4,a4,1
   1228c:	0098b023          	sd	s1,0(a7)
   12290:	0198b423          	sd	s9,8(a7)
   12294:	0cf13023          	sd	a5,192(sp)
   12298:	0ae12c23          	sw	a4,184(sp)
   1229c:	01088893          	addi	a7,a7,16
   122a0:	fce85ee3          	ble	a4,a6,1227c <_vfprintf_r+0x844>
   122a4:	0b010613          	addi	a2,sp,176
   122a8:	000a0593          	mv	a1,s4
   122ac:	000b8513          	mv	a0,s7
   122b0:	01013023          	sd	a6,0(sp)
   122b4:	5750a0ef          	jal	1d028 <__sprint_r>
   122b8:	a80518e3          	bnez	a0,11d48 <_vfprintf_r+0x310>
   122bc:	ff04041b          	addiw	s0,s0,-16
   122c0:	0c013783          	ld	a5,192(sp)
   122c4:	0b812703          	lw	a4,184(sp)
   122c8:	000b0893          	mv	a7,s6
   122cc:	00013803          	ld	a6,0(sp)
   122d0:	fa8dcae3          	blt	s11,s0,12284 <_vfprintf_r+0x84c>
   122d4:	01013683          	ld	a3,16(sp)
   122d8:	008787b3          	add	a5,a5,s0
   122dc:	0017071b          	addiw	a4,a4,1
   122e0:	00d8b023          	sd	a3,0(a7)
   122e4:	0088b423          	sd	s0,8(a7)
   122e8:	0cf13023          	sd	a5,192(sp)
   122ec:	0ae12c23          	sw	a4,184(sp)
   122f0:	00700693          	li	a3,7
   122f4:	01088893          	addi	a7,a7,16
   122f8:	02e6d063          	ble	a4,a3,12318 <_vfprintf_r+0x8e0>
   122fc:	0b010613          	addi	a2,sp,176
   12300:	000a0593          	mv	a1,s4
   12304:	000b8513          	mv	a0,s7
   12308:	5210a0ef          	jal	1d028 <__sprint_r>
   1230c:	a2051ee3          	bnez	a0,11d48 <_vfprintf_r+0x310>
   12310:	0c013783          	ld	a5,192(sp)
   12314:	000b0893          	mv	a7,s6
   12318:	100c7713          	andi	a4,s8,256
   1231c:	40071663          	bnez	a4,12728 <_vfprintf_r+0xcf0>
   12320:	02012703          	lw	a4,32(sp)
   12324:	0b812683          	lw	a3,184(sp)
   12328:	0128b023          	sd	s2,0(a7)
   1232c:	00e787b3          	add	a5,a5,a4
   12330:	0016869b          	addiw	a3,a3,1
   12334:	00e8b423          	sd	a4,8(a7)
   12338:	0cf13023          	sd	a5,192(sp)
   1233c:	0ad12c23          	sw	a3,184(sp)
   12340:	00700713          	li	a4,7
   12344:	3cd74263          	blt	a4,a3,12708 <_vfprintf_r+0xcd0>
   12348:	01088893          	addi	a7,a7,16
   1234c:	004c7c13          	andi	s8,s8,4
   12350:	0c0c0063          	beqz	s8,12410 <_vfprintf_r+0x9d8>
   12354:	01812703          	lw	a4,24(sp)
   12358:	00812683          	lw	a3,8(sp)
   1235c:	40d7043b          	subw	s0,a4,a3
   12360:	0a805863          	blez	s0,12410 <_vfprintf_r+0x9d8>
   12364:	01000713          	li	a4,16
   12368:	748754e3          	ble	s0,a4,132b0 <_vfprintf_r+0x1878>
   1236c:	01000913          	li	s2,16
   12370:	0b812703          	lw	a4,184(sp)
   12374:	05513823          	sd	s5,80(sp)
   12378:	00700c13          	li	s8,7
   1237c:	00090d13          	mv	s10,s2
   12380:	00c0006f          	j	1238c <_vfprintf_r+0x954>
   12384:	ff04041b          	addiw	s0,s0,-16
   12388:	048d5663          	ble	s0,s10,123d4 <_vfprintf_r+0x99c>
   1238c:	01078793          	addi	a5,a5,16
   12390:	0017071b          	addiw	a4,a4,1
   12394:	0158b023          	sd	s5,0(a7)
   12398:	0128b423          	sd	s2,8(a7)
   1239c:	0cf13023          	sd	a5,192(sp)
   123a0:	0ae12c23          	sw	a4,184(sp)
   123a4:	01088893          	addi	a7,a7,16
   123a8:	fcec5ee3          	ble	a4,s8,12384 <_vfprintf_r+0x94c>
   123ac:	0b010613          	addi	a2,sp,176
   123b0:	000a0593          	mv	a1,s4
   123b4:	000b8513          	mv	a0,s7
   123b8:	4710a0ef          	jal	1d028 <__sprint_r>
   123bc:	980516e3          	bnez	a0,11d48 <_vfprintf_r+0x310>
   123c0:	ff04041b          	addiw	s0,s0,-16
   123c4:	0c013783          	ld	a5,192(sp)
   123c8:	0b812703          	lw	a4,184(sp)
   123cc:	000b0893          	mv	a7,s6
   123d0:	fa8d4ee3          	blt	s10,s0,1238c <_vfprintf_r+0x954>
   123d4:	05013683          	ld	a3,80(sp)
   123d8:	008787b3          	add	a5,a5,s0
   123dc:	0017071b          	addiw	a4,a4,1
   123e0:	00d8b023          	sd	a3,0(a7)
   123e4:	0088b423          	sd	s0,8(a7)
   123e8:	0cf13023          	sd	a5,192(sp)
   123ec:	0ae12c23          	sw	a4,184(sp)
   123f0:	00700693          	li	a3,7
   123f4:	00e6de63          	ble	a4,a3,12410 <_vfprintf_r+0x9d8>
   123f8:	0b010613          	addi	a2,sp,176
   123fc:	000a0593          	mv	a1,s4
   12400:	000b8513          	mv	a0,s7
   12404:	4250a0ef          	jal	1d028 <__sprint_r>
   12408:	940510e3          	bnez	a0,11d48 <_vfprintf_r+0x310>
   1240c:	0c013783          	ld	a5,192(sp)
   12410:	01812c83          	lw	s9,24(sp)
   12414:	00812703          	lw	a4,8(sp)
   12418:	00ecd463          	ble	a4,s9,12420 <_vfprintf_r+0x9e8>
   1241c:	00070c93          	mv	s9,a4
   12420:	01c12703          	lw	a4,28(sp)
   12424:	0197073b          	addw	a4,a4,s9
   12428:	00e12e23          	sw	a4,28(sp)
   1242c:	52079863          	bnez	a5,1295c <_vfprintf_r+0xf24>
   12430:	0009c783          	lbu	a5,0(s3)
   12434:	0a012c23          	sw	zero,184(sp)
   12438:	000b0893          	mv	a7,s6
   1243c:	f2079263          	bnez	a5,11b60 <_vfprintf_r+0x128>
   12440:	00098413          	mv	s0,s3
   12444:	f80ff06f          	j	11bc4 <_vfprintf_r+0x18c>
   12448:	00060463          	beqz	a2,12450 <_vfprintf_r+0xa18>
   1244c:	22c0106f          	j	13678 <_vfprintf_r+0x1c40>
   12450:	010c7793          	andi	a5,s8,16
   12454:	12078e63          	beqz	a5,12590 <_vfprintf_r+0xb58>
   12458:	02813703          	ld	a4,40(sp)
   1245c:	00073783          	ld	a5,0(a4)
   12460:	00870713          	addi	a4,a4,8
   12464:	02e13423          	sd	a4,40(sp)
   12468:	1407c0e3          	bltz	a5,12da8 <_vfprintf_r+0x1370>
   1246c:	08f14603          	lbu	a2,143(sp)
   12470:	bc044ee3          	bltz	s0,1204c <_vfprintf_r+0x614>
   12474:	f7fc7c13          	andi	s8,s8,-129
   12478:	ae0798e3          	bnez	a5,11f68 <_vfprintf_r+0x530>
   1247c:	6e041a63          	bnez	s0,12b70 <_vfprintf_r+0x1138>
   12480:	00000413          	li	s0,0
   12484:	02012023          	sw	zero,32(sp)
   12488:	000b0913          	mv	s2,s6
   1248c:	9a9ff06f          	j	11e34 <_vfprintf_r+0x3fc>
   12490:	040c6c13          	ori	s8,s8,64
   12494:	f60ff06f          	j	11bf4 <_vfprintf_r+0x1bc>
   12498:	00060463          	beqz	a2,124a0 <_vfprintf_r+0xa68>
   1249c:	1d40106f          	j	13670 <_vfprintf_r+0x1c38>
   124a0:	02813783          	ld	a5,40(sp)
   124a4:	00100913          	li	s2,1
   124a8:	0007b787          	fld	fa5,0(a5)
   124ac:	00878793          	addi	a5,a5,8
   124b0:	01113023          	sd	a7,0(sp)
   124b4:	04f13c27          	fsd	fa5,88(sp)
   124b8:	05813c83          	ld	s9,88(sp)
   124bc:	02f13423          	sd	a5,40(sp)
   124c0:	f20c8553          	fmv.d.x	fa0,s9
   124c4:	208070ef          	jal	196cc <__fpclassifyd>
   124c8:	00013883          	ld	a7,0(sp)
   124cc:	0f251ce3          	bne	a0,s2,12dc4 <_vfprintf_r+0x138c>
   124d0:	f20007d3          	fmv.d.x	fa5,zero
   124d4:	f20c8753          	fmv.d.x	fa4,s9
   124d8:	a2f717d3          	flt.d	a5,fa4,fa5
   124dc:	600792e3          	bnez	a5,132e0 <_vfprintf_r+0x18a8>
   124e0:	08f14603          	lbu	a2,143(sp)
   124e4:	04700793          	li	a5,71
   124e8:	3da7d8e3          	ble	s10,a5,130b8 <_vfprintf_r+0x1680>
   124ec:	00022937          	lui	s2,0x22
   124f0:	ce090913          	addi	s2,s2,-800 # 21ce0 <zeroes.4123+0x678>
   124f4:	00300793          	li	a5,3
   124f8:	00f12423          	sw	a5,8(sp)
   124fc:	f7fc7c13          	andi	s8,s8,-129
   12500:	02f12023          	sw	a5,32(sp)
   12504:	00000413          	li	s0,0
   12508:	04012623          	sw	zero,76(sp)
   1250c:	941ff06f          	j	11e4c <_vfprintf_r+0x414>
   12510:	008c6c13          	ori	s8,s8,8
   12514:	ee0ff06f          	j	11bf4 <_vfprintf_r+0x1bc>
   12518:	00060463          	beqz	a2,12520 <_vfprintf_r+0xae8>
   1251c:	1280106f          	j	13644 <_vfprintf_r+0x1c0c>
   12520:	000227b7          	lui	a5,0x22
   12524:	d1078793          	addi	a5,a5,-752 # 21d10 <zeroes.4123+0x6a8>
   12528:	02f13c23          	sd	a5,56(sp)
   1252c:	010c7793          	andi	a5,s8,16
   12530:	b40792e3          	bnez	a5,12074 <_vfprintf_r+0x63c>
   12534:	040c7793          	andi	a5,s8,64
   12538:	02813703          	ld	a4,40(sp)
   1253c:	1c0784e3          	beqz	a5,12f04 <_vfprintf_r+0x14cc>
   12540:	00075783          	lhu	a5,0(a4)
   12544:	00870713          	addi	a4,a4,8
   12548:	02e13423          	sd	a4,40(sp)
   1254c:	b39ff06f          	j	12084 <_vfprintf_r+0x64c>
   12550:	00060463          	beqz	a2,12558 <_vfprintf_r+0xb20>
   12554:	10c0106f          	j	13660 <_vfprintf_r+0x1c28>
   12558:	010c7793          	andi	a5,s8,16
   1255c:	1a078ce3          	beqz	a5,12f14 <_vfprintf_r+0x14dc>
   12560:	02813683          	ld	a3,40(sp)
   12564:	01c12703          	lw	a4,28(sp)
   12568:	0006b783          	ld	a5,0(a3)
   1256c:	00868693          	addi	a3,a3,8
   12570:	02d13423          	sd	a3,40(sp)
   12574:	00e7b023          	sd	a4,0(a5)
   12578:	de0ff06f          	j	11b58 <_vfprintf_r+0x120>
   1257c:	00060463          	beqz	a2,12584 <_vfprintf_r+0xb4c>
   12580:	0d40106f          	j	13654 <_vfprintf_r+0x1c1c>
   12584:	010c6c13          	ori	s8,s8,16
   12588:	010c7793          	andi	a5,s8,16
   1258c:	ec0796e3          	bnez	a5,12458 <_vfprintf_r+0xa20>
   12590:	040c7793          	andi	a5,s8,64
   12594:	02813703          	ld	a4,40(sp)
   12598:	1a0780e3          	beqz	a5,12f38 <_vfprintf_r+0x1500>
   1259c:	00071783          	lh	a5,0(a4)
   125a0:	00870713          	addi	a4,a4,8
   125a4:	02e13423          	sd	a4,40(sp)
   125a8:	ec1ff06f          	j	12468 <_vfprintf_r+0xa30>
   125ac:	00022737          	lui	a4,0x22
   125b0:	d1070713          	addi	a4,a4,-752 # 21d10 <zeroes.4123+0x6a8>
   125b4:	00000613          	li	a2,0
   125b8:	02e13c23          	sd	a4,56(sp)
   125bc:	07800d13          	li	s10,120
   125c0:	ee0ff06f          	j	11ca0 <_vfprintf_r+0x268>
   125c4:	00060463          	beqz	a2,125cc <_vfprintf_r+0xb94>
   125c8:	0c00106f          	j	13688 <_vfprintf_r+0x1c50>
   125cc:	f60d0263          	beqz	s10,11d30 <_vfprintf_r+0x2f8>
   125d0:	00100793          	li	a5,1
   125d4:	00f12423          	sw	a5,8(sp)
   125d8:	0da10423          	sb	s10,200(sp)
   125dc:	080107a3          	sb	zero,143(sp)
   125e0:	00000613          	li	a2,0
   125e4:	02f12023          	sw	a5,32(sp)
   125e8:	00000413          	li	s0,0
   125ec:	04012623          	sw	zero,76(sp)
   125f0:	0c810913          	addi	s2,sp,200
   125f4:	afdff06f          	j	120f0 <_vfprintf_r+0x6b8>
   125f8:	02e13423          	sd	a4,40(sp)
   125fc:	00022737          	lui	a4,0x22
   12600:	d1070713          	addi	a4,a4,-752 # 21d10 <zeroes.4123+0x6a8>
   12604:	00068c13          	mv	s8,a3
   12608:	02e13c23          	sd	a4,56(sp)
   1260c:	07800d13          	li	s10,120
   12610:	3a079a63          	bnez	a5,129c4 <_vfprintf_r+0xf8c>
   12614:	00000613          	li	a2,0
   12618:	00200793          	li	a5,2
   1261c:	00100713          	li	a4,1
   12620:	54e78863          	beq	a5,a4,12b70 <_vfprintf_r+0x1138>
   12624:	00200713          	li	a4,2
   12628:	e6e78a63          	beq	a5,a4,11c9c <_vfprintf_r+0x264>
   1262c:	00000793          	li	a5,0
   12630:	fc4ff06f          	j	11df4 <_vfprintf_r+0x3bc>
   12634:	0c013783          	ld	a5,192(sp)
   12638:	ba1ff06f          	j	121d8 <_vfprintf_r+0x7a0>
   1263c:	07012683          	lw	a3,112(sp)
   12640:	00100713          	li	a4,1
   12644:	00178793          	addi	a5,a5,1
   12648:	6cd75663          	ble	a3,a4,12d14 <_vfprintf_r+0x12dc>
   1264c:	0b812703          	lw	a4,184(sp)
   12650:	00100693          	li	a3,1
   12654:	00d8b423          	sd	a3,8(a7)
   12658:	0017071b          	addiw	a4,a4,1
   1265c:	0128b023          	sd	s2,0(a7)
   12660:	0cf13023          	sd	a5,192(sp)
   12664:	0ae12c23          	sw	a4,184(sp)
   12668:	00700693          	li	a3,7
   1266c:	01088893          	addi	a7,a7,16
   12670:	6ce6ca63          	blt	a3,a4,12d44 <_vfprintf_r+0x130c>
   12674:	06813683          	ld	a3,104(sp)
   12678:	06013603          	ld	a2,96(sp)
   1267c:	0017071b          	addiw	a4,a4,1
   12680:	00f687b3          	add	a5,a3,a5
   12684:	00d8b423          	sd	a3,8(a7)
   12688:	00c8b023          	sd	a2,0(a7)
   1268c:	0cf13023          	sd	a5,192(sp)
   12690:	0ae12c23          	sw	a4,184(sp)
   12694:	00700693          	li	a3,7
   12698:	01088893          	addi	a7,a7,16
   1269c:	6ee6c263          	blt	a3,a4,12d80 <_vfprintf_r+0x1348>
   126a0:	f20007d3          	fmv.d.x	fa5,zero
   126a4:	05813707          	fld	fa4,88(sp)
   126a8:	a2f726d3          	feq.d	a3,fa4,fa5
   126ac:	40069c63          	bnez	a3,12ac4 <_vfprintf_r+0x108c>
   126b0:	07012683          	lw	a3,112(sp)
   126b4:	00190913          	addi	s2,s2,1
   126b8:	0017071b          	addiw	a4,a4,1
   126bc:	fff6869b          	addiw	a3,a3,-1
   126c0:	00d787b3          	add	a5,a5,a3
   126c4:	0128b023          	sd	s2,0(a7)
   126c8:	00d8b423          	sd	a3,8(a7)
   126cc:	0cf13023          	sd	a5,192(sp)
   126d0:	0ae12c23          	sw	a4,184(sp)
   126d4:	00700693          	li	a3,7
   126d8:	26e6c063          	blt	a3,a4,12938 <_vfprintf_r+0xf00>
   126dc:	01088893          	addi	a7,a7,16
   126e0:	07412683          	lw	a3,116(sp)
   126e4:	0a010613          	addi	a2,sp,160
   126e8:	0017071b          	addiw	a4,a4,1
   126ec:	00f687b3          	add	a5,a3,a5
   126f0:	00c8b023          	sd	a2,0(a7)
   126f4:	00d8b423          	sd	a3,8(a7)
   126f8:	0cf13023          	sd	a5,192(sp)
   126fc:	0ae12c23          	sw	a4,184(sp)
   12700:	00700693          	li	a3,7
   12704:	c4e6d2e3          	ble	a4,a3,12348 <_vfprintf_r+0x910>
   12708:	0b010613          	addi	a2,sp,176
   1270c:	000a0593          	mv	a1,s4
   12710:	000b8513          	mv	a0,s7
   12714:	1150a0ef          	jal	1d028 <__sprint_r>
   12718:	e2051863          	bnez	a0,11d48 <_vfprintf_r+0x310>
   1271c:	0c013783          	ld	a5,192(sp)
   12720:	000b0893          	mv	a7,s6
   12724:	c29ff06f          	j	1234c <_vfprintf_r+0x914>
   12728:	06500713          	li	a4,101
   1272c:	f1a758e3          	ble	s10,a4,1263c <_vfprintf_r+0xc04>
   12730:	f20007d3          	fmv.d.x	fa5,zero
   12734:	05813707          	fld	fa4,88(sp)
   12738:	a2f72753          	feq.d	a4,fa4,fa5
   1273c:	28070863          	beqz	a4,129cc <_vfprintf_r+0xf94>
   12740:	0b812703          	lw	a4,184(sp)
   12744:	000226b7          	lui	a3,0x22
   12748:	d3068693          	addi	a3,a3,-720 # 21d30 <zeroes.4123+0x6c8>
   1274c:	00d8b023          	sd	a3,0(a7)
   12750:	00178793          	addi	a5,a5,1
   12754:	00100693          	li	a3,1
   12758:	0017071b          	addiw	a4,a4,1
   1275c:	00d8b423          	sd	a3,8(a7)
   12760:	0cf13023          	sd	a5,192(sp)
   12764:	0ae12c23          	sw	a4,184(sp)
   12768:	00700693          	li	a3,7
   1276c:	01088893          	addi	a7,a7,16
   12770:	7ee6ca63          	blt	a3,a4,12f64 <_vfprintf_r+0x152c>
   12774:	09812703          	lw	a4,152(sp)
   12778:	07012683          	lw	a3,112(sp)
   1277c:	00d74663          	blt	a4,a3,12788 <_vfprintf_r+0xd50>
   12780:	001c7713          	andi	a4,s8,1
   12784:	bc0704e3          	beqz	a4,1234c <_vfprintf_r+0x914>
   12788:	06013703          	ld	a4,96(sp)
   1278c:	06813683          	ld	a3,104(sp)
   12790:	01088893          	addi	a7,a7,16
   12794:	fee8b823          	sd	a4,-16(a7)
   12798:	0b812703          	lw	a4,184(sp)
   1279c:	00d787b3          	add	a5,a5,a3
   127a0:	fed8bc23          	sd	a3,-8(a7)
   127a4:	0017071b          	addiw	a4,a4,1
   127a8:	0cf13023          	sd	a5,192(sp)
   127ac:	0ae12c23          	sw	a4,184(sp)
   127b0:	00700693          	li	a3,7
   127b4:	1ce6c8e3          	blt	a3,a4,13184 <_vfprintf_r+0x174c>
   127b8:	07012703          	lw	a4,112(sp)
   127bc:	fff7041b          	addiw	s0,a4,-1
   127c0:	b88056e3          	blez	s0,1234c <_vfprintf_r+0x914>
   127c4:	01000713          	li	a4,16
   127c8:	36875c63          	ble	s0,a4,12b40 <_vfprintf_r+0x1108>
   127cc:	01000913          	li	s2,16
   127d0:	0b812703          	lw	a4,184(sp)
   127d4:	00913823          	sd	s1,16(sp)
   127d8:	00700d13          	li	s10,7
   127dc:	00090693          	mv	a3,s2
   127e0:	00c0006f          	j	127ec <_vfprintf_r+0xdb4>
   127e4:	ff04041b          	addiw	s0,s0,-16
   127e8:	3686d063          	ble	s0,a3,12b48 <_vfprintf_r+0x1110>
   127ec:	01078793          	addi	a5,a5,16
   127f0:	0017071b          	addiw	a4,a4,1
   127f4:	0098b023          	sd	s1,0(a7)
   127f8:	0128b423          	sd	s2,8(a7)
   127fc:	0cf13023          	sd	a5,192(sp)
   12800:	0ae12c23          	sw	a4,184(sp)
   12804:	01088893          	addi	a7,a7,16
   12808:	fced5ee3          	ble	a4,s10,127e4 <_vfprintf_r+0xdac>
   1280c:	0b010613          	addi	a2,sp,176
   12810:	000a0593          	mv	a1,s4
   12814:	000b8513          	mv	a0,s7
   12818:	00d13023          	sd	a3,0(sp)
   1281c:	00d0a0ef          	jal	1d028 <__sprint_r>
   12820:	d2051463          	bnez	a0,11d48 <_vfprintf_r+0x310>
   12824:	0c013783          	ld	a5,192(sp)
   12828:	0b812703          	lw	a4,184(sp)
   1282c:	000b0893          	mv	a7,s6
   12830:	00013683          	ld	a3,0(sp)
   12834:	fb1ff06f          	j	127e4 <_vfprintf_r+0xdac>
   12838:	01812703          	lw	a4,24(sp)
   1283c:	00812683          	lw	a3,8(sp)
   12840:	40d70cbb          	subw	s9,a4,a3
   12844:	a19056e3          	blez	s9,12250 <_vfprintf_r+0x818>
   12848:	01000713          	li	a4,16
   1284c:	2f975ee3          	ble	s9,a4,13348 <_vfprintf_r+0x1910>
   12850:	01000813          	li	a6,16
   12854:	0b812703          	lw	a4,184(sp)
   12858:	00913823          	sd	s1,16(sp)
   1285c:	00700313          	li	t1,7
   12860:	00080d93          	mv	s11,a6
   12864:	00c0006f          	j	12870 <_vfprintf_r+0xe38>
   12868:	ff0c8c9b          	addiw	s9,s9,-16
   1286c:	059dde63          	ble	s9,s11,128c8 <_vfprintf_r+0xe90>
   12870:	01078793          	addi	a5,a5,16
   12874:	0017071b          	addiw	a4,a4,1
   12878:	0098b023          	sd	s1,0(a7)
   1287c:	0108b423          	sd	a6,8(a7)
   12880:	0cf13023          	sd	a5,192(sp)
   12884:	0ae12c23          	sw	a4,184(sp)
   12888:	01088893          	addi	a7,a7,16
   1288c:	fce35ee3          	ble	a4,t1,12868 <_vfprintf_r+0xe30>
   12890:	0b010613          	addi	a2,sp,176
   12894:	000a0593          	mv	a1,s4
   12898:	000b8513          	mv	a0,s7
   1289c:	04613023          	sd	t1,64(sp)
   128a0:	01013023          	sd	a6,0(sp)
   128a4:	7840a0ef          	jal	1d028 <__sprint_r>
   128a8:	ca051063          	bnez	a0,11d48 <_vfprintf_r+0x310>
   128ac:	ff0c8c9b          	addiw	s9,s9,-16
   128b0:	0c013783          	ld	a5,192(sp)
   128b4:	0b812703          	lw	a4,184(sp)
   128b8:	000b0893          	mv	a7,s6
   128bc:	04013303          	ld	t1,64(sp)
   128c0:	00013803          	ld	a6,0(sp)
   128c4:	fb9dc6e3          	blt	s11,s9,12870 <_vfprintf_r+0xe38>
   128c8:	01013603          	ld	a2,16(sp)
   128cc:	019787b3          	add	a5,a5,s9
   128d0:	0017071b          	addiw	a4,a4,1
   128d4:	00c8b023          	sd	a2,0(a7)
   128d8:	0198b423          	sd	s9,8(a7)
   128dc:	0cf13023          	sd	a5,192(sp)
   128e0:	0ae12c23          	sw	a4,184(sp)
   128e4:	00700693          	li	a3,7
   128e8:	01088893          	addi	a7,a7,16
   128ec:	96e6d2e3          	ble	a4,a3,12250 <_vfprintf_r+0x818>
   128f0:	0b010613          	addi	a2,sp,176
   128f4:	000a0593          	mv	a1,s4
   128f8:	000b8513          	mv	a0,s7
   128fc:	72c0a0ef          	jal	1d028 <__sprint_r>
   12900:	c4051463          	bnez	a0,11d48 <_vfprintf_r+0x310>
   12904:	0c013783          	ld	a5,192(sp)
   12908:	000b0893          	mv	a7,s6
   1290c:	945ff06f          	j	12250 <_vfprintf_r+0x818>
   12910:	00913823          	sd	s1,16(sp)
   12914:	01013683          	ld	a3,16(sp)
   12918:	008787b3          	add	a5,a5,s0
   1291c:	0017071b          	addiw	a4,a4,1
   12920:	00d8b023          	sd	a3,0(a7)
   12924:	0088b423          	sd	s0,8(a7)
   12928:	0cf13023          	sd	a5,192(sp)
   1292c:	0ae12c23          	sw	a4,184(sp)
   12930:	00700693          	li	a3,7
   12934:	dae6d4e3          	ble	a4,a3,126dc <_vfprintf_r+0xca4>
   12938:	0b010613          	addi	a2,sp,176
   1293c:	000a0593          	mv	a1,s4
   12940:	000b8513          	mv	a0,s7
   12944:	6e40a0ef          	jal	1d028 <__sprint_r>
   12948:	c0051063          	bnez	a0,11d48 <_vfprintf_r+0x310>
   1294c:	0c013783          	ld	a5,192(sp)
   12950:	0b812703          	lw	a4,184(sp)
   12954:	000b0893          	mv	a7,s6
   12958:	d89ff06f          	j	126e0 <_vfprintf_r+0xca8>
   1295c:	0b010613          	addi	a2,sp,176
   12960:	000a0593          	mv	a1,s4
   12964:	000b8513          	mv	a0,s7
   12968:	6c00a0ef          	jal	1d028 <__sprint_r>
   1296c:	ac0502e3          	beqz	a0,12430 <_vfprintf_r+0x9f8>
   12970:	bd8ff06f          	j	11d48 <_vfprintf_r+0x310>
   12974:	0b010613          	addi	a2,sp,176
   12978:	000a0593          	mv	a1,s4
   1297c:	000b8513          	mv	a0,s7
   12980:	6a80a0ef          	jal	1d028 <__sprint_r>
   12984:	bc051263          	bnez	a0,11d48 <_vfprintf_r+0x310>
   12988:	0c013783          	ld	a5,192(sp)
   1298c:	000b0893          	mv	a7,s6
   12990:	87dff06f          	j	1220c <_vfprintf_r+0x7d4>
   12994:	0b010613          	addi	a2,sp,176
   12998:	000a0593          	mv	a1,s4
   1299c:	000b8513          	mv	a0,s7
   129a0:	6880a0ef          	jal	1d028 <__sprint_r>
   129a4:	ba051263          	bnez	a0,11d48 <_vfprintf_r+0x310>
   129a8:	0c013783          	ld	a5,192(sp)
   129ac:	000b0893          	mv	a7,s6
   129b0:	895ff06f          	j	12244 <_vfprintf_r+0x80c>
   129b4:	080107a3          	sb	zero,143(sp)
   129b8:	c4044ce3          	bltz	s0,12610 <_vfprintf_r+0xbd8>
   129bc:	f7fc7c13          	andi	s8,s8,-129
   129c0:	ac078a63          	beqz	a5,11c94 <_vfprintf_r+0x25c>
   129c4:	00000613          	li	a2,0
   129c8:	ad8ff06f          	j	11ca0 <_vfprintf_r+0x268>
   129cc:	09812403          	lw	s0,152(sp)
   129d0:	5a805c63          	blez	s0,12f88 <_vfprintf_r+0x1550>
   129d4:	04c12703          	lw	a4,76(sp)
   129d8:	07012683          	lw	a3,112(sp)
   129dc:	00070413          	mv	s0,a4
   129e0:	00e6d463          	ble	a4,a3,129e8 <_vfprintf_r+0xfb0>
   129e4:	00068413          	mv	s0,a3
   129e8:	02805663          	blez	s0,12a14 <_vfprintf_r+0xfdc>
   129ec:	0b812703          	lw	a4,184(sp)
   129f0:	008787b3          	add	a5,a5,s0
   129f4:	0128b023          	sd	s2,0(a7)
   129f8:	0017071b          	addiw	a4,a4,1
   129fc:	0088b423          	sd	s0,8(a7)
   12a00:	0cf13023          	sd	a5,192(sp)
   12a04:	0ae12c23          	sw	a4,184(sp)
   12a08:	00700693          	li	a3,7
   12a0c:	01088893          	addi	a7,a7,16
   12a10:	6ae6ca63          	blt	a3,a4,130c4 <_vfprintf_r+0x168c>
   12a14:	020448e3          	bltz	s0,13244 <_vfprintf_r+0x180c>
   12a18:	04c12703          	lw	a4,76(sp)
   12a1c:	4087043b          	subw	s0,a4,s0
   12a20:	1a805c63          	blez	s0,12bd8 <_vfprintf_r+0x11a0>
   12a24:	01000713          	li	a4,16
   12a28:	16875263          	ble	s0,a4,12b8c <_vfprintf_r+0x1154>
   12a2c:	01000d13          	li	s10,16
   12a30:	0b812703          	lw	a4,184(sp)
   12a34:	00913823          	sd	s1,16(sp)
   12a38:	00700693          	li	a3,7
   12a3c:	000d0813          	mv	a6,s10
   12a40:	00c0006f          	j	12a4c <_vfprintf_r+0x1014>
   12a44:	ff04041b          	addiw	s0,s0,-16
   12a48:	14885663          	ble	s0,a6,12b94 <_vfprintf_r+0x115c>
   12a4c:	01078793          	addi	a5,a5,16
   12a50:	0017071b          	addiw	a4,a4,1
   12a54:	0098b023          	sd	s1,0(a7)
   12a58:	01a8b423          	sd	s10,8(a7)
   12a5c:	0cf13023          	sd	a5,192(sp)
   12a60:	0ae12c23          	sw	a4,184(sp)
   12a64:	01088893          	addi	a7,a7,16
   12a68:	fce6dee3          	ble	a4,a3,12a44 <_vfprintf_r+0x100c>
   12a6c:	0b010613          	addi	a2,sp,176
   12a70:	000a0593          	mv	a1,s4
   12a74:	000b8513          	mv	a0,s7
   12a78:	03013023          	sd	a6,32(sp)
   12a7c:	00d13023          	sd	a3,0(sp)
   12a80:	5a80a0ef          	jal	1d028 <__sprint_r>
   12a84:	ac051263          	bnez	a0,11d48 <_vfprintf_r+0x310>
   12a88:	0c013783          	ld	a5,192(sp)
   12a8c:	0b812703          	lw	a4,184(sp)
   12a90:	000b0893          	mv	a7,s6
   12a94:	02013803          	ld	a6,32(sp)
   12a98:	00013683          	ld	a3,0(sp)
   12a9c:	fa9ff06f          	j	12a44 <_vfprintf_r+0x100c>
   12aa0:	0b010613          	addi	a2,sp,176
   12aa4:	000a0593          	mv	a1,s4
   12aa8:	000b8513          	mv	a0,s7
   12aac:	57c0a0ef          	jal	1d028 <__sprint_r>
   12ab0:	a8051c63          	bnez	a0,11d48 <_vfprintf_r+0x310>
   12ab4:	08f14603          	lbu	a2,143(sp)
   12ab8:	0c013783          	ld	a5,192(sp)
   12abc:	000b0893          	mv	a7,s6
   12ac0:	f18ff06f          	j	121d8 <_vfprintf_r+0x7a0>
   12ac4:	07012683          	lw	a3,112(sp)
   12ac8:	fff6841b          	addiw	s0,a3,-1
   12acc:	c0805ae3          	blez	s0,126e0 <_vfprintf_r+0xca8>
   12ad0:	01000693          	li	a3,16
   12ad4:	e286dee3          	ble	s0,a3,12910 <_vfprintf_r+0xed8>
   12ad8:	01000913          	li	s2,16
   12adc:	00913823          	sd	s1,16(sp)
   12ae0:	00700d13          	li	s10,7
   12ae4:	00090693          	mv	a3,s2
   12ae8:	00c0006f          	j	12af4 <_vfprintf_r+0x10bc>
   12aec:	ff04041b          	addiw	s0,s0,-16
   12af0:	e286d2e3          	ble	s0,a3,12914 <_vfprintf_r+0xedc>
   12af4:	01078793          	addi	a5,a5,16
   12af8:	0017071b          	addiw	a4,a4,1
   12afc:	0098b023          	sd	s1,0(a7)
   12b00:	0128b423          	sd	s2,8(a7)
   12b04:	0cf13023          	sd	a5,192(sp)
   12b08:	0ae12c23          	sw	a4,184(sp)
   12b0c:	01088893          	addi	a7,a7,16
   12b10:	fced5ee3          	ble	a4,s10,12aec <_vfprintf_r+0x10b4>
   12b14:	0b010613          	addi	a2,sp,176
   12b18:	000a0593          	mv	a1,s4
   12b1c:	000b8513          	mv	a0,s7
   12b20:	00d13023          	sd	a3,0(sp)
   12b24:	5040a0ef          	jal	1d028 <__sprint_r>
   12b28:	a2051063          	bnez	a0,11d48 <_vfprintf_r+0x310>
   12b2c:	0c013783          	ld	a5,192(sp)
   12b30:	0b812703          	lw	a4,184(sp)
   12b34:	000b0893          	mv	a7,s6
   12b38:	00013683          	ld	a3,0(sp)
   12b3c:	fb1ff06f          	j	12aec <_vfprintf_r+0x10b4>
   12b40:	0b812703          	lw	a4,184(sp)
   12b44:	00913823          	sd	s1,16(sp)
   12b48:	01013683          	ld	a3,16(sp)
   12b4c:	008787b3          	add	a5,a5,s0
   12b50:	0088b423          	sd	s0,8(a7)
   12b54:	00d8b023          	sd	a3,0(a7)
   12b58:	0017071b          	addiw	a4,a4,1
   12b5c:	0cf13023          	sd	a5,192(sp)
   12b60:	0ae12c23          	sw	a4,184(sp)
   12b64:	00700693          	li	a3,7
   12b68:	fee6d063          	ble	a4,a3,12348 <_vfprintf_r+0x910>
   12b6c:	b9dff06f          	j	12708 <_vfprintf_r+0xcd0>
   12b70:	00000793          	li	a5,0
   12b74:	0307879b          	addiw	a5,a5,48
   12b78:	0ef107a3          	sb	a5,239(sp)
   12b7c:	07813783          	ld	a5,120(sp)
   12b80:	0ef10913          	addi	s2,sp,239
   12b84:	02f12023          	sw	a5,32(sp)
   12b88:	aacff06f          	j	11e34 <_vfprintf_r+0x3fc>
   12b8c:	0b812703          	lw	a4,184(sp)
   12b90:	00913823          	sd	s1,16(sp)
   12b94:	01013683          	ld	a3,16(sp)
   12b98:	008787b3          	add	a5,a5,s0
   12b9c:	0017071b          	addiw	a4,a4,1
   12ba0:	00d8b023          	sd	a3,0(a7)
   12ba4:	0088b423          	sd	s0,8(a7)
   12ba8:	0cf13023          	sd	a5,192(sp)
   12bac:	0ae12c23          	sw	a4,184(sp)
   12bb0:	00700693          	li	a3,7
   12bb4:	01088893          	addi	a7,a7,16
   12bb8:	02e6d063          	ble	a4,a3,12bd8 <_vfprintf_r+0x11a0>
   12bbc:	0b010613          	addi	a2,sp,176
   12bc0:	000a0593          	mv	a1,s4
   12bc4:	000b8513          	mv	a0,s7
   12bc8:	4600a0ef          	jal	1d028 <__sprint_r>
   12bcc:	96051e63          	bnez	a0,11d48 <_vfprintf_r+0x310>
   12bd0:	0c013783          	ld	a5,192(sp)
   12bd4:	000b0893          	mv	a7,s6
   12bd8:	04c12d03          	lw	s10,76(sp)
   12bdc:	09812703          	lw	a4,152(sp)
   12be0:	07012683          	lw	a3,112(sp)
   12be4:	01a90d33          	add	s10,s2,s10
   12be8:	0cd74a63          	blt	a4,a3,12cbc <_vfprintf_r+0x1284>
   12bec:	001c7693          	andi	a3,s8,1
   12bf0:	0c069663          	bnez	a3,12cbc <_vfprintf_r+0x1284>
   12bf4:	07012683          	lw	a3,112(sp)
   12bf8:	00d90433          	add	s0,s2,a3
   12bfc:	41a40433          	sub	s0,s0,s10
   12c00:	40e6873b          	subw	a4,a3,a4
   12c04:	0004041b          	sext.w	s0,s0
   12c08:	00875463          	ble	s0,a4,12c10 <_vfprintf_r+0x11d8>
   12c0c:	00070413          	mv	s0,a4
   12c10:	02805663          	blez	s0,12c3c <_vfprintf_r+0x1204>
   12c14:	0b812683          	lw	a3,184(sp)
   12c18:	008787b3          	add	a5,a5,s0
   12c1c:	01a8b023          	sd	s10,0(a7)
   12c20:	0016869b          	addiw	a3,a3,1
   12c24:	0088b423          	sd	s0,8(a7)
   12c28:	0cf13023          	sd	a5,192(sp)
   12c2c:	0ad12c23          	sw	a3,184(sp)
   12c30:	00700613          	li	a2,7
   12c34:	01088893          	addi	a7,a7,16
   12c38:	4cd64263          	blt	a2,a3,130fc <_vfprintf_r+0x16c4>
   12c3c:	60044863          	bltz	s0,1324c <_vfprintf_r+0x1814>
   12c40:	4087043b          	subw	s0,a4,s0
   12c44:	f0805463          	blez	s0,1234c <_vfprintf_r+0x914>
   12c48:	01000713          	li	a4,16
   12c4c:	ee875ae3          	ble	s0,a4,12b40 <_vfprintf_r+0x1108>
   12c50:	01000913          	li	s2,16
   12c54:	0b812703          	lw	a4,184(sp)
   12c58:	00913823          	sd	s1,16(sp)
   12c5c:	00700d13          	li	s10,7
   12c60:	00090693          	mv	a3,s2
   12c64:	00c0006f          	j	12c70 <_vfprintf_r+0x1238>
   12c68:	ff04041b          	addiw	s0,s0,-16
   12c6c:	ec86dee3          	ble	s0,a3,12b48 <_vfprintf_r+0x1110>
   12c70:	01078793          	addi	a5,a5,16
   12c74:	0017071b          	addiw	a4,a4,1
   12c78:	0098b023          	sd	s1,0(a7)
   12c7c:	0128b423          	sd	s2,8(a7)
   12c80:	0cf13023          	sd	a5,192(sp)
   12c84:	0ae12c23          	sw	a4,184(sp)
   12c88:	01088893          	addi	a7,a7,16
   12c8c:	fced5ee3          	ble	a4,s10,12c68 <_vfprintf_r+0x1230>
   12c90:	0b010613          	addi	a2,sp,176
   12c94:	000a0593          	mv	a1,s4
   12c98:	000b8513          	mv	a0,s7
   12c9c:	00d13023          	sd	a3,0(sp)
   12ca0:	3880a0ef          	jal	1d028 <__sprint_r>
   12ca4:	8a051263          	bnez	a0,11d48 <_vfprintf_r+0x310>
   12ca8:	0c013783          	ld	a5,192(sp)
   12cac:	0b812703          	lw	a4,184(sp)
   12cb0:	000b0893          	mv	a7,s6
   12cb4:	00013683          	ld	a3,0(sp)
   12cb8:	fb1ff06f          	j	12c68 <_vfprintf_r+0x1230>
   12cbc:	06013683          	ld	a3,96(sp)
   12cc0:	06813603          	ld	a2,104(sp)
   12cc4:	01088893          	addi	a7,a7,16
   12cc8:	fed8b823          	sd	a3,-16(a7)
   12ccc:	0b812683          	lw	a3,184(sp)
   12cd0:	00c787b3          	add	a5,a5,a2
   12cd4:	fec8bc23          	sd	a2,-8(a7)
   12cd8:	0016869b          	addiw	a3,a3,1
   12cdc:	0cf13023          	sd	a5,192(sp)
   12ce0:	0ad12c23          	sw	a3,184(sp)
   12ce4:	00700613          	li	a2,7
   12ce8:	f0d656e3          	ble	a3,a2,12bf4 <_vfprintf_r+0x11bc>
   12cec:	0b010613          	addi	a2,sp,176
   12cf0:	000a0593          	mv	a1,s4
   12cf4:	000b8513          	mv	a0,s7
   12cf8:	3300a0ef          	jal	1d028 <__sprint_r>
   12cfc:	00050463          	beqz	a0,12d04 <_vfprintf_r+0x12cc>
   12d00:	848ff06f          	j	11d48 <_vfprintf_r+0x310>
   12d04:	09812703          	lw	a4,152(sp)
   12d08:	0c013783          	ld	a5,192(sp)
   12d0c:	000b0893          	mv	a7,s6
   12d10:	ee5ff06f          	j	12bf4 <_vfprintf_r+0x11bc>
   12d14:	00ec7733          	and	a4,s8,a4
   12d18:	92071ae3          	bnez	a4,1264c <_vfprintf_r+0xc14>
   12d1c:	0b812703          	lw	a4,184(sp)
   12d20:	0128b023          	sd	s2,0(a7)
   12d24:	00100693          	li	a3,1
   12d28:	0017071b          	addiw	a4,a4,1
   12d2c:	99dff06f          	j	126c8 <_vfprintf_r+0xc90>
   12d30:	02813783          	ld	a5,40(sp)
   12d34:	00878713          	addi	a4,a5,8
   12d38:	0007e783          	lwu	a5,0(a5)
   12d3c:	a0045e63          	bgez	s0,11f58 <_vfprintf_r+0x520>
   12d40:	b04ff06f          	j	12044 <_vfprintf_r+0x60c>
   12d44:	0b010613          	addi	a2,sp,176
   12d48:	000a0593          	mv	a1,s4
   12d4c:	000b8513          	mv	a0,s7
   12d50:	2d80a0ef          	jal	1d028 <__sprint_r>
   12d54:	00050463          	beqz	a0,12d5c <_vfprintf_r+0x1324>
   12d58:	ff1fe06f          	j	11d48 <_vfprintf_r+0x310>
   12d5c:	0c013783          	ld	a5,192(sp)
   12d60:	0b812703          	lw	a4,184(sp)
   12d64:	000b0893          	mv	a7,s6
   12d68:	90dff06f          	j	12674 <_vfprintf_r+0xc3c>
   12d6c:	02813783          	ld	a5,40(sp)
   12d70:	00878713          	addi	a4,a5,8
   12d74:	0007e783          	lwu	a5,0(a5)
   12d78:	86045063          	bgez	s0,11dd8 <_vfprintf_r+0x3a0>
   12d7c:	a84ff06f          	j	12000 <_vfprintf_r+0x5c8>
   12d80:	0b010613          	addi	a2,sp,176
   12d84:	000a0593          	mv	a1,s4
   12d88:	000b8513          	mv	a0,s7
   12d8c:	29c0a0ef          	jal	1d028 <__sprint_r>
   12d90:	00050463          	beqz	a0,12d98 <_vfprintf_r+0x1360>
   12d94:	fb5fe06f          	j	11d48 <_vfprintf_r+0x310>
   12d98:	0c013783          	ld	a5,192(sp)
   12d9c:	0b812703          	lw	a4,184(sp)
   12da0:	000b0893          	mv	a7,s6
   12da4:	8fdff06f          	j	126a0 <_vfprintf_r+0xc68>
   12da8:	02d00713          	li	a4,45
   12dac:	08e107a3          	sb	a4,143(sp)
   12db0:	40f007b3          	neg	a5,a5
   12db4:	4a044063          	bltz	s0,13254 <_vfprintf_r+0x181c>
   12db8:	f7fc7c13          	andi	s8,s8,-129
   12dbc:	02d00613          	li	a2,45
   12dc0:	9a8ff06f          	j	11f68 <_vfprintf_r+0x530>
   12dc4:	05813507          	fld	fa0,88(sp)
   12dc8:	01113023          	sd	a7,0(sp)
   12dcc:	101060ef          	jal	196cc <__fpclassifyd>
   12dd0:	00013883          	ld	a7,0(sp)
   12dd4:	2a050463          	beqz	a0,1307c <_vfprintf_r+0x1644>
   12dd8:	fff00793          	li	a5,-1
   12ddc:	fdfd7d93          	andi	s11,s10,-33
   12de0:	62f40c63          	beq	s0,a5,13418 <_vfprintf_r+0x19e0>
   12de4:	04700793          	li	a5,71
   12de8:	62fd8263          	beq	s11,a5,1340c <_vfprintf_r+0x19d4>
   12dec:	05813703          	ld	a4,88(sp)
   12df0:	100c6693          	ori	a3,s8,256
   12df4:	00d12023          	sw	a3,0(sp)
   12df8:	42075793          	srai	a5,a4,0x20
   12dfc:	f2070453          	fmv.d.x	fs0,a4
   12e00:	00000c93          	li	s9,0
   12e04:	6607c663          	bltz	a5,13470 <_vfprintf_r+0x1a38>
   12e08:	06600793          	li	a5,102
   12e0c:	60fd0a63          	beq	s10,a5,13420 <_vfprintf_r+0x19e8>
   12e10:	04600793          	li	a5,70
   12e14:	72fd0863          	beq	s10,a5,13544 <_vfprintf_r+0x1b0c>
   12e18:	fbbd859b          	addiw	a1,s11,-69
   12e1c:	0015b593          	seqz	a1,a1
   12e20:	228405d3          	fmv.d	fa1,fs0
   12e24:	00b405bb          	addw	a1,s0,a1
   12e28:	09c10793          	addi	a5,sp,156
   12e2c:	00058693          	mv	a3,a1
   12e30:	0a810813          	addi	a6,sp,168
   12e34:	09810713          	addi	a4,sp,152
   12e38:	00200613          	li	a2,2
   12e3c:	000b8513          	mv	a0,s7
   12e40:	01113823          	sd	a7,16(sp)
   12e44:	00b13423          	sd	a1,8(sp)
   12e48:	26c020ef          	jal	150b4 <_dtoa_r>
   12e4c:	06700793          	li	a5,103
   12e50:	00050913          	mv	s2,a0
   12e54:	00813583          	ld	a1,8(sp)
   12e58:	01013883          	ld	a7,16(sp)
   12e5c:	46fd0863          	beq	s10,a5,132cc <_vfprintf_r+0x1894>
   12e60:	04700793          	li	a5,71
   12e64:	00b50733          	add	a4,a0,a1
   12e68:	48fd0a63          	beq	s10,a5,132fc <_vfprintf_r+0x18c4>
   12e6c:	f20007d3          	fmv.d.x	fa5,zero
   12e70:	00070793          	mv	a5,a4
   12e74:	a2f426d3          	feq.d	a3,fs0,fa5
   12e78:	02069263          	bnez	a3,12e9c <_vfprintf_r+0x1464>
   12e7c:	0a813783          	ld	a5,168(sp)
   12e80:	00e7fe63          	bleu	a4,a5,12e9c <_vfprintf_r+0x1464>
   12e84:	03000613          	li	a2,48
   12e88:	00178693          	addi	a3,a5,1
   12e8c:	0ad13423          	sd	a3,168(sp)
   12e90:	00c78023          	sb	a2,0(a5)
   12e94:	0a813783          	ld	a5,168(sp)
   12e98:	fee7e8e3          	bltu	a5,a4,12e88 <_vfprintf_r+0x1450>
   12e9c:	412787b3          	sub	a5,a5,s2
   12ea0:	06f12823          	sw	a5,112(sp)
   12ea4:	04700793          	li	a5,71
   12ea8:	46fd8663          	beq	s11,a5,13314 <_vfprintf_r+0x18dc>
   12eac:	06500793          	li	a5,101
   12eb0:	7ba7dc63          	ble	s10,a5,13668 <_vfprintf_r+0x1c30>
   12eb4:	06600793          	li	a5,102
   12eb8:	60fd0263          	beq	s10,a5,134bc <_vfprintf_r+0x1a84>
   12ebc:	09812783          	lw	a5,152(sp)
   12ec0:	04f12623          	sw	a5,76(sp)
   12ec4:	04c12703          	lw	a4,76(sp)
   12ec8:	07012683          	lw	a3,112(sp)
   12ecc:	00070793          	mv	a5,a4
   12ed0:	5ad74663          	blt	a4,a3,1347c <_vfprintf_r+0x1a44>
   12ed4:	001c7c13          	andi	s8,s8,1
   12ed8:	5c0c1463          	bnez	s8,134a0 <_vfprintf_r+0x1a68>
   12edc:	76074863          	bltz	a4,1364c <_vfprintf_r+0x1c14>
   12ee0:	04c12703          	lw	a4,76(sp)
   12ee4:	06700d13          	li	s10,103
   12ee8:	02e12023          	sw	a4,32(sp)
   12eec:	440c9063          	bnez	s9,1332c <_vfprintf_r+0x18f4>
   12ef0:	08f14603          	lbu	a2,143(sp)
   12ef4:	00f12423          	sw	a5,8(sp)
   12ef8:	00012c03          	lw	s8,0(sp)
   12efc:	00000413          	li	s0,0
   12f00:	f4dfe06f          	j	11e4c <_vfprintf_r+0x414>
   12f04:	00076783          	lwu	a5,0(a4)
   12f08:	00870713          	addi	a4,a4,8
   12f0c:	02e13423          	sd	a4,40(sp)
   12f10:	974ff06f          	j	12084 <_vfprintf_r+0x64c>
   12f14:	02813703          	ld	a4,40(sp)
   12f18:	040c7c13          	andi	s8,s8,64
   12f1c:	00073783          	ld	a5,0(a4)
   12f20:	00870713          	addi	a4,a4,8
   12f24:	02e13423          	sd	a4,40(sp)
   12f28:	180c0263          	beqz	s8,130ac <_vfprintf_r+0x1674>
   12f2c:	01c15703          	lhu	a4,28(sp)
   12f30:	00e79023          	sh	a4,0(a5)
   12f34:	c25fe06f          	j	11b58 <_vfprintf_r+0x120>
   12f38:	00072783          	lw	a5,0(a4)
   12f3c:	00870713          	addi	a4,a4,8
   12f40:	02e13423          	sd	a4,40(sp)
   12f44:	d24ff06f          	j	12468 <_vfprintf_r+0xa30>
   12f48:	080107a3          	sb	zero,143(sp)
   12f4c:	ec044463          	bltz	s0,12614 <_vfprintf_r+0xbdc>
   12f50:	f7fc7c13          	andi	s8,s8,-129
   12f54:	d41fe06f          	j	11c94 <_vfprintf_r+0x25c>
   12f58:	0b812703          	lw	a4,184(sp)
   12f5c:	00913823          	sd	s1,16(sp)
   12f60:	b74ff06f          	j	122d4 <_vfprintf_r+0x89c>
   12f64:	0b010613          	addi	a2,sp,176
   12f68:	000a0593          	mv	a1,s4
   12f6c:	000b8513          	mv	a0,s7
   12f70:	0b80a0ef          	jal	1d028 <__sprint_r>
   12f74:	00050463          	beqz	a0,12f7c <_vfprintf_r+0x1544>
   12f78:	dd1fe06f          	j	11d48 <_vfprintf_r+0x310>
   12f7c:	0c013783          	ld	a5,192(sp)
   12f80:	000b0893          	mv	a7,s6
   12f84:	ff0ff06f          	j	12774 <_vfprintf_r+0xd3c>
   12f88:	0b812703          	lw	a4,184(sp)
   12f8c:	000226b7          	lui	a3,0x22
   12f90:	d3068693          	addi	a3,a3,-720 # 21d30 <zeroes.4123+0x6c8>
   12f94:	00d8b023          	sd	a3,0(a7)
   12f98:	00178793          	addi	a5,a5,1
   12f9c:	00100693          	li	a3,1
   12fa0:	0017071b          	addiw	a4,a4,1
   12fa4:	00d8b423          	sd	a3,8(a7)
   12fa8:	0cf13023          	sd	a5,192(sp)
   12fac:	0ae12c23          	sw	a4,184(sp)
   12fb0:	00700693          	li	a3,7
   12fb4:	01088893          	addi	a7,a7,16
   12fb8:	16e6ca63          	blt	a3,a4,1312c <_vfprintf_r+0x16f4>
   12fbc:	12040663          	beqz	s0,130e8 <_vfprintf_r+0x16b0>
   12fc0:	06013703          	ld	a4,96(sp)
   12fc4:	06813683          	ld	a3,104(sp)
   12fc8:	01088893          	addi	a7,a7,16
   12fcc:	fee8b823          	sd	a4,-16(a7)
   12fd0:	0b812703          	lw	a4,184(sp)
   12fd4:	00f687b3          	add	a5,a3,a5
   12fd8:	fed8bc23          	sd	a3,-8(a7)
   12fdc:	0017071b          	addiw	a4,a4,1
   12fe0:	0cf13023          	sd	a5,192(sp)
   12fe4:	0ae12c23          	sw	a4,184(sp)
   12fe8:	00700693          	li	a3,7
   12fec:	3ee6ca63          	blt	a3,a4,133e0 <_vfprintf_r+0x19a8>
   12ff0:	4080043b          	negw	s0,s0
   12ff4:	20805263          	blez	s0,131f8 <_vfprintf_r+0x17c0>
   12ff8:	01000693          	li	a3,16
   12ffc:	1a86d663          	ble	s0,a3,131a8 <_vfprintf_r+0x1770>
   13000:	01000d13          	li	s10,16
   13004:	00913823          	sd	s1,16(sp)
   13008:	00700813          	li	a6,7
   1300c:	000d0693          	mv	a3,s10
   13010:	00c0006f          	j	1301c <_vfprintf_r+0x15e4>
   13014:	ff04041b          	addiw	s0,s0,-16
   13018:	1886da63          	ble	s0,a3,131ac <_vfprintf_r+0x1774>
   1301c:	01078793          	addi	a5,a5,16
   13020:	0017071b          	addiw	a4,a4,1
   13024:	0098b023          	sd	s1,0(a7)
   13028:	01a8b423          	sd	s10,8(a7)
   1302c:	0cf13023          	sd	a5,192(sp)
   13030:	0ae12c23          	sw	a4,184(sp)
   13034:	01088893          	addi	a7,a7,16
   13038:	fce85ee3          	ble	a4,a6,13014 <_vfprintf_r+0x15dc>
   1303c:	0b010613          	addi	a2,sp,176
   13040:	000a0593          	mv	a1,s4
   13044:	000b8513          	mv	a0,s7
   13048:	02d13023          	sd	a3,32(sp)
   1304c:	01013023          	sd	a6,0(sp)
   13050:	7d9090ef          	jal	1d028 <__sprint_r>
   13054:	00050463          	beqz	a0,1305c <_vfprintf_r+0x1624>
   13058:	cf1fe06f          	j	11d48 <_vfprintf_r+0x310>
   1305c:	0c013783          	ld	a5,192(sp)
   13060:	0b812703          	lw	a4,184(sp)
   13064:	000b0893          	mv	a7,s6
   13068:	02013683          	ld	a3,32(sp)
   1306c:	00013803          	ld	a6,0(sp)
   13070:	fa5ff06f          	j	13014 <_vfprintf_r+0x15dc>
   13074:	fff00513          	li	a0,-1
   13078:	ce5fe06f          	j	11d5c <_vfprintf_r+0x324>
   1307c:	04700793          	li	a5,71
   13080:	27a7c863          	blt	a5,s10,132f0 <_vfprintf_r+0x18b8>
   13084:	00022937          	lui	s2,0x22
   13088:	ce890913          	addi	s2,s2,-792 # 21ce8 <zeroes.4123+0x680>
   1308c:	00300793          	li	a5,3
   13090:	00f12423          	sw	a5,8(sp)
   13094:	f7fc7c13          	andi	s8,s8,-129
   13098:	08f14603          	lbu	a2,143(sp)
   1309c:	02f12023          	sw	a5,32(sp)
   130a0:	00000413          	li	s0,0
   130a4:	04012623          	sw	zero,76(sp)
   130a8:	da5fe06f          	j	11e4c <_vfprintf_r+0x414>
   130ac:	01c12703          	lw	a4,28(sp)
   130b0:	00e7a023          	sw	a4,0(a5)
   130b4:	aa5fe06f          	j	11b58 <_vfprintf_r+0x120>
   130b8:	00022937          	lui	s2,0x22
   130bc:	cd890913          	addi	s2,s2,-808 # 21cd8 <zeroes.4123+0x670>
   130c0:	c34ff06f          	j	124f4 <_vfprintf_r+0xabc>
   130c4:	0b010613          	addi	a2,sp,176
   130c8:	000a0593          	mv	a1,s4
   130cc:	000b8513          	mv	a0,s7
   130d0:	759090ef          	jal	1d028 <__sprint_r>
   130d4:	00050463          	beqz	a0,130dc <_vfprintf_r+0x16a4>
   130d8:	c71fe06f          	j	11d48 <_vfprintf_r+0x310>
   130dc:	0c013783          	ld	a5,192(sp)
   130e0:	000b0893          	mv	a7,s6
   130e4:	931ff06f          	j	12a14 <_vfprintf_r+0xfdc>
   130e8:	07012703          	lw	a4,112(sp)
   130ec:	ec071ae3          	bnez	a4,12fc0 <_vfprintf_r+0x1588>
   130f0:	001c7713          	andi	a4,s8,1
   130f4:	a4070c63          	beqz	a4,1234c <_vfprintf_r+0x914>
   130f8:	ec9ff06f          	j	12fc0 <_vfprintf_r+0x1588>
   130fc:	0b010613          	addi	a2,sp,176
   13100:	000a0593          	mv	a1,s4
   13104:	000b8513          	mv	a0,s7
   13108:	721090ef          	jal	1d028 <__sprint_r>
   1310c:	00050463          	beqz	a0,13114 <_vfprintf_r+0x16dc>
   13110:	c39fe06f          	j	11d48 <_vfprintf_r+0x310>
   13114:	09812703          	lw	a4,152(sp)
   13118:	07012683          	lw	a3,112(sp)
   1311c:	0c013783          	ld	a5,192(sp)
   13120:	000b0893          	mv	a7,s6
   13124:	40e6873b          	subw	a4,a3,a4
   13128:	b15ff06f          	j	12c3c <_vfprintf_r+0x1204>
   1312c:	0b010613          	addi	a2,sp,176
   13130:	000a0593          	mv	a1,s4
   13134:	000b8513          	mv	a0,s7
   13138:	6f1090ef          	jal	1d028 <__sprint_r>
   1313c:	00050463          	beqz	a0,13144 <_vfprintf_r+0x170c>
   13140:	c09fe06f          	j	11d48 <_vfprintf_r+0x310>
   13144:	09812403          	lw	s0,152(sp)
   13148:	0c013783          	ld	a5,192(sp)
   1314c:	000b0893          	mv	a7,s6
   13150:	e60418e3          	bnez	s0,12fc0 <_vfprintf_r+0x1588>
   13154:	f95ff06f          	j	130e8 <_vfprintf_r+0x16b0>
   13158:	001c7793          	andi	a5,s8,1
   1315c:	00078e63          	beqz	a5,13178 <_vfprintf_r+0x1740>
   13160:	03000793          	li	a5,48
   13164:	0ef107a3          	sb	a5,239(sp)
   13168:	07813783          	ld	a5,120(sp)
   1316c:	0ef10913          	addi	s2,sp,239
   13170:	02f12023          	sw	a5,32(sp)
   13174:	cc1fe06f          	j	11e34 <_vfprintf_r+0x3fc>
   13178:	02012023          	sw	zero,32(sp)
   1317c:	000b0913          	mv	s2,s6
   13180:	cb5fe06f          	j	11e34 <_vfprintf_r+0x3fc>
   13184:	0b010613          	addi	a2,sp,176
   13188:	000a0593          	mv	a1,s4
   1318c:	000b8513          	mv	a0,s7
   13190:	699090ef          	jal	1d028 <__sprint_r>
   13194:	00050463          	beqz	a0,1319c <_vfprintf_r+0x1764>
   13198:	bb1fe06f          	j	11d48 <_vfprintf_r+0x310>
   1319c:	0c013783          	ld	a5,192(sp)
   131a0:	000b0893          	mv	a7,s6
   131a4:	e14ff06f          	j	127b8 <_vfprintf_r+0xd80>
   131a8:	00913823          	sd	s1,16(sp)
   131ac:	01013683          	ld	a3,16(sp)
   131b0:	008787b3          	add	a5,a5,s0
   131b4:	0017071b          	addiw	a4,a4,1
   131b8:	00d8b023          	sd	a3,0(a7)
   131bc:	0088b423          	sd	s0,8(a7)
   131c0:	0cf13023          	sd	a5,192(sp)
   131c4:	0ae12c23          	sw	a4,184(sp)
   131c8:	00700693          	li	a3,7
   131cc:	01088893          	addi	a7,a7,16
   131d0:	02e6d463          	ble	a4,a3,131f8 <_vfprintf_r+0x17c0>
   131d4:	0b010613          	addi	a2,sp,176
   131d8:	000a0593          	mv	a1,s4
   131dc:	000b8513          	mv	a0,s7
   131e0:	649090ef          	jal	1d028 <__sprint_r>
   131e4:	00050463          	beqz	a0,131ec <_vfprintf_r+0x17b4>
   131e8:	b61fe06f          	j	11d48 <_vfprintf_r+0x310>
   131ec:	0c013783          	ld	a5,192(sp)
   131f0:	0b812703          	lw	a4,184(sp)
   131f4:	000b0893          	mv	a7,s6
   131f8:	07012683          	lw	a3,112(sp)
   131fc:	0017071b          	addiw	a4,a4,1
   13200:	0128b023          	sd	s2,0(a7)
   13204:	00f687b3          	add	a5,a3,a5
   13208:	cecff06f          	j	126f4 <_vfprintf_r+0xcbc>
   1320c:	00090513          	mv	a0,s2
   13210:	f58fe0ef          	jal	11968 <strlen>
   13214:	0005079b          	sext.w	a5,a0
   13218:	02f12023          	sw	a5,32(sp)
   1321c:	00078d93          	mv	s11,a5
   13220:	00013883          	ld	a7,0(sp)
   13224:	0007c463          	bltz	a5,1322c <_vfprintf_r+0x17f4>
   13228:	cf5fe06f          	j	11f1c <_vfprintf_r+0x4e4>
   1322c:	00000d93          	li	s11,0
   13230:	cedfe06f          	j	11f1c <_vfprintf_r+0x4e4>
   13234:	0c013783          	ld	a5,192(sp)
   13238:	0b812703          	lw	a4,184(sp)
   1323c:	05513823          	sd	s5,80(sp)
   13240:	f6dfe06f          	j	121ac <_vfprintf_r+0x774>
   13244:	00000413          	li	s0,0
   13248:	fd0ff06f          	j	12a18 <_vfprintf_r+0xfe0>
   1324c:	00000413          	li	s0,0
   13250:	9f1ff06f          	j	12c40 <_vfprintf_r+0x1208>
   13254:	02d00613          	li	a2,45
   13258:	00100713          	li	a4,1
   1325c:	00100693          	li	a3,1
   13260:	00d71463          	bne	a4,a3,13268 <_vfprintf_r+0x1830>
   13264:	d05fe06f          	j	11f68 <_vfprintf_r+0x530>
   13268:	00200693          	li	a3,2
   1326c:	00d71463          	bne	a4,a3,13274 <_vfprintf_r+0x183c>
   13270:	a31fe06f          	j	11ca0 <_vfprintf_r+0x268>
   13274:	b81fe06f          	j	11df4 <_vfprintf_r+0x3bc>
   13278:	00600713          	li	a4,6
   1327c:	00877463          	bleu	s0,a4,13284 <_vfprintf_r+0x184c>
   13280:	00070413          	mv	s0,a4
   13284:	02812023          	sw	s0,32(sp)
   13288:	00040d93          	mv	s11,s0
   1328c:	32044a63          	bltz	s0,135c0 <_vfprintf_r+0x1b88>
   13290:	00022937          	lui	s2,0x22
   13294:	01b12423          	sw	s11,8(sp)
   13298:	03913423          	sd	s9,40(sp)
   1329c:	00000613          	li	a2,0
   132a0:	00000413          	li	s0,0
   132a4:	04012623          	sw	zero,76(sp)
   132a8:	d2890913          	addi	s2,s2,-728 # 21d28 <zeroes.4123+0x6c0>
   132ac:	e45fe06f          	j	120f0 <_vfprintf_r+0x6b8>
   132b0:	0b812703          	lw	a4,184(sp)
   132b4:	05513823          	sd	s5,80(sp)
   132b8:	91cff06f          	j	123d4 <_vfprintf_r+0x99c>
   132bc:	00070c13          	mv	s8,a4
   132c0:	00000613          	li	a2,0
   132c4:	00200713          	li	a4,2
   132c8:	f95ff06f          	j	1325c <_vfprintf_r+0x1824>
   132cc:	001c7793          	andi	a5,s8,1
   132d0:	00b50733          	add	a4,a0,a1
   132d4:	b8079ce3          	bnez	a5,12e6c <_vfprintf_r+0x1434>
   132d8:	0a813783          	ld	a5,168(sp)
   132dc:	bc1ff06f          	j	12e9c <_vfprintf_r+0x1464>
   132e0:	02d00793          	li	a5,45
   132e4:	08f107a3          	sb	a5,143(sp)
   132e8:	02d00613          	li	a2,45
   132ec:	9f8ff06f          	j	124e4 <_vfprintf_r+0xaac>
   132f0:	00022937          	lui	s2,0x22
   132f4:	cf090913          	addi	s2,s2,-784 # 21cf0 <zeroes.4123+0x688>
   132f8:	d95ff06f          	j	1308c <_vfprintf_r+0x1654>
   132fc:	001c7793          	andi	a5,s8,1
   13300:	26079a63          	bnez	a5,13574 <_vfprintf_r+0x1b3c>
   13304:	0a813783          	ld	a5,168(sp)
   13308:	412787b3          	sub	a5,a5,s2
   1330c:	06f12823          	sw	a5,112(sp)
   13310:	35ad9c63          	bne	s11,s10,13668 <_vfprintf_r+0x1c30>
   13314:	09812783          	lw	a5,152(sp)
   13318:	ffd00713          	li	a4,-3
   1331c:	02e7cc63          	blt	a5,a4,13354 <_vfprintf_r+0x191c>
   13320:	02f44a63          	blt	s0,a5,13354 <_vfprintf_r+0x191c>
   13324:	04f12623          	sw	a5,76(sp)
   13328:	b9dff06f          	j	12ec4 <_vfprintf_r+0x148c>
   1332c:	02d00713          	li	a4,45
   13330:	08e107a3          	sb	a4,143(sp)
   13334:	00f12423          	sw	a5,8(sp)
   13338:	00012c03          	lw	s8,0(sp)
   1333c:	02d00613          	li	a2,45
   13340:	00000413          	li	s0,0
   13344:	b0dfe06f          	j	11e50 <_vfprintf_r+0x418>
   13348:	0b812703          	lw	a4,184(sp)
   1334c:	00913823          	sd	s1,16(sp)
   13350:	d78ff06f          	j	128c8 <_vfprintf_r+0xe90>
   13354:	ffed0d1b          	addiw	s10,s10,-2
   13358:	fff7879b          	addiw	a5,a5,-1
   1335c:	08f12c23          	sw	a5,152(sp)
   13360:	0ba10023          	sb	s10,160(sp)
   13364:	2c07c863          	bltz	a5,13634 <_vfprintf_r+0x1bfc>
   13368:	02b00713          	li	a4,43
   1336c:	0ae100a3          	sb	a4,161(sp)
   13370:	00900613          	li	a2,9
   13374:	16f64463          	blt	a2,a5,134dc <_vfprintf_r+0x1aa4>
   13378:	0307879b          	addiw	a5,a5,48
   1337c:	03000713          	li	a4,48
   13380:	0af101a3          	sb	a5,163(sp)
   13384:	0ae10123          	sb	a4,162(sp)
   13388:	0a410793          	addi	a5,sp,164
   1338c:	0a010713          	addi	a4,sp,160
   13390:	40e787bb          	subw	a5,a5,a4
   13394:	07012703          	lw	a4,112(sp)
   13398:	06f12a23          	sw	a5,116(sp)
   1339c:	00e787bb          	addw	a5,a5,a4
   133a0:	02f12023          	sw	a5,32(sp)
   133a4:	00100793          	li	a5,1
   133a8:	26e7d263          	ble	a4,a5,1360c <_vfprintf_r+0x1bd4>
   133ac:	02012783          	lw	a5,32(sp)
   133b0:	0017879b          	addiw	a5,a5,1
   133b4:	02f12023          	sw	a5,32(sp)
   133b8:	2607c463          	bltz	a5,13620 <_vfprintf_r+0x1be8>
   133bc:	04012623          	sw	zero,76(sp)
   133c0:	b2dff06f          	j	12eec <_vfprintf_r+0x14b4>
   133c4:	00812423          	sw	s0,8(sp)
   133c8:	02812023          	sw	s0,32(sp)
   133cc:	08f14603          	lbu	a2,143(sp)
   133d0:	03913423          	sd	s9,40(sp)
   133d4:	00000413          	li	s0,0
   133d8:	04012623          	sw	zero,76(sp)
   133dc:	a71fe06f          	j	11e4c <_vfprintf_r+0x414>
   133e0:	0b010613          	addi	a2,sp,176
   133e4:	000a0593          	mv	a1,s4
   133e8:	000b8513          	mv	a0,s7
   133ec:	43d090ef          	jal	1d028 <__sprint_r>
   133f0:	00050463          	beqz	a0,133f8 <_vfprintf_r+0x19c0>
   133f4:	955fe06f          	j	11d48 <_vfprintf_r+0x310>
   133f8:	09812403          	lw	s0,152(sp)
   133fc:	0c013783          	ld	a5,192(sp)
   13400:	0b812703          	lw	a4,184(sp)
   13404:	000b0893          	mv	a7,s6
   13408:	be9ff06f          	j	12ff0 <_vfprintf_r+0x15b8>
   1340c:	9e0410e3          	bnez	s0,12dec <_vfprintf_r+0x13b4>
   13410:	00090413          	mv	s0,s2
   13414:	9d9ff06f          	j	12dec <_vfprintf_r+0x13b4>
   13418:	00600413          	li	s0,6
   1341c:	9d1ff06f          	j	12dec <_vfprintf_r+0x13b4>
   13420:	228405d3          	fmv.d	fa1,fs0
   13424:	09810713          	addi	a4,sp,152
   13428:	0a810813          	addi	a6,sp,168
   1342c:	09c10793          	addi	a5,sp,156
   13430:	00040693          	mv	a3,s0
   13434:	00300613          	li	a2,3
   13438:	000b8513          	mv	a0,s7
   1343c:	01113423          	sd	a7,8(sp)
   13440:	475010ef          	jal	150b4 <_dtoa_r>
   13444:	00813883          	ld	a7,8(sp)
   13448:	00040713          	mv	a4,s0
   1344c:	00050913          	mv	s2,a0
   13450:	00e50733          	add	a4,a0,a4
   13454:	00040593          	mv	a1,s0
   13458:	00094683          	lbu	a3,0(s2)
   1345c:	03000793          	li	a5,48
   13460:	14f68063          	beq	a3,a5,135a0 <_vfprintf_r+0x1b68>
   13464:	09812583          	lw	a1,152(sp)
   13468:	00b70733          	add	a4,a4,a1
   1346c:	a01ff06f          	j	12e6c <_vfprintf_r+0x1434>
   13470:	22841453          	fneg.d	fs0,fs0
   13474:	02d00c93          	li	s9,45
   13478:	991ff06f          	j	12e08 <_vfprintf_r+0x13d0>
   1347c:	04c12703          	lw	a4,76(sp)
   13480:	00100793          	li	a5,1
   13484:	1ae05263          	blez	a4,13628 <_vfprintf_r+0x1bf0>
   13488:	07012703          	lw	a4,112(sp)
   1348c:	00e787bb          	addw	a5,a5,a4
   13490:	02f12023          	sw	a5,32(sp)
   13494:	0007ce63          	bltz	a5,134b0 <_vfprintf_r+0x1a78>
   13498:	06700d13          	li	s10,103
   1349c:	a51ff06f          	j	12eec <_vfprintf_r+0x14b4>
   134a0:	04c12783          	lw	a5,76(sp)
   134a4:	0017879b          	addiw	a5,a5,1
   134a8:	02f12023          	sw	a5,32(sp)
   134ac:	fe07d6e3          	bgez	a5,13498 <_vfprintf_r+0x1a60>
   134b0:	00000793          	li	a5,0
   134b4:	06700d13          	li	s10,103
   134b8:	a35ff06f          	j	12eec <_vfprintf_r+0x14b4>
   134bc:	09812783          	lw	a5,152(sp)
   134c0:	04f12623          	sw	a5,76(sp)
   134c4:	12f05263          	blez	a5,135e8 <_vfprintf_r+0x1bb0>
   134c8:	0a041e63          	bnez	s0,13584 <_vfprintf_r+0x1b4c>
   134cc:	001c7c13          	andi	s8,s8,1
   134d0:	0a0c1a63          	bnez	s8,13584 <_vfprintf_r+0x1b4c>
   134d4:	02f12023          	sw	a5,32(sp)
   134d8:	a15ff06f          	j	12eec <_vfprintf_r+0x14b4>
   134dc:	0af10593          	addi	a1,sp,175
   134e0:	00058713          	mv	a4,a1
   134e4:	00a00513          	li	a0,10
   134e8:	02a7e6bb          	remw	a3,a5,a0
   134ec:	fff70713          	addi	a4,a4,-1
   134f0:	02a7c7bb          	divw	a5,a5,a0
   134f4:	0306869b          	addiw	a3,a3,48
   134f8:	00d70023          	sb	a3,0(a4)
   134fc:	fef646e3          	blt	a2,a5,134e8 <_vfprintf_r+0x1ab0>
   13500:	0307879b          	addiw	a5,a5,48
   13504:	0ff7f793          	andi	a5,a5,255
   13508:	fff70693          	addi	a3,a4,-1
   1350c:	fef70fa3          	sb	a5,-1(a4)
   13510:	16b6f863          	bleu	a1,a3,13680 <_vfprintf_r+0x1c48>
   13514:	0a210613          	addi	a2,sp,162
   13518:	0080006f          	j	13520 <_vfprintf_r+0x1ae8>
   1351c:	0006c783          	lbu	a5,0(a3)
   13520:	00160613          	addi	a2,a2,1 # 2001 <_ftext-0xdfff>
   13524:	00168693          	addi	a3,a3,1
   13528:	fef60fa3          	sb	a5,-1(a2)
   1352c:	feb698e3          	bne	a3,a1,1351c <_vfprintf_r+0x1ae4>
   13530:	0b010793          	addi	a5,sp,176
   13534:	40e787b3          	sub	a5,a5,a4
   13538:	0a210713          	addi	a4,sp,162
   1353c:	00f707b3          	add	a5,a4,a5
   13540:	e4dff06f          	j	1338c <_vfprintf_r+0x1954>
   13544:	228405d3          	fmv.d	fa1,fs0
   13548:	0a810813          	addi	a6,sp,168
   1354c:	09c10793          	addi	a5,sp,156
   13550:	09810713          	addi	a4,sp,152
   13554:	00040693          	mv	a3,s0
   13558:	00300613          	li	a2,3
   1355c:	000b8513          	mv	a0,s7
   13560:	01113423          	sd	a7,8(sp)
   13564:	351010ef          	jal	150b4 <_dtoa_r>
   13568:	00813883          	ld	a7,8(sp)
   1356c:	00050913          	mv	s2,a0
   13570:	00040593          	mv	a1,s0
   13574:	04600793          	li	a5,70
   13578:	00b90733          	add	a4,s2,a1
   1357c:	ecfd0ee3          	beq	s10,a5,13458 <_vfprintf_r+0x1a20>
   13580:	8edff06f          	j	12e6c <_vfprintf_r+0x1434>
   13584:	04c12783          	lw	a5,76(sp)
   13588:	0014041b          	addiw	s0,s0,1
   1358c:	008787bb          	addw	a5,a5,s0
   13590:	02f12023          	sw	a5,32(sp)
   13594:	9407dce3          	bgez	a5,12eec <_vfprintf_r+0x14b4>
   13598:	00000793          	li	a5,0
   1359c:	951ff06f          	j	12eec <_vfprintf_r+0x14b4>
   135a0:	f20007d3          	fmv.d.x	fa5,zero
   135a4:	a2f427d3          	feq.d	a5,fs0,fa5
   135a8:	ea079ee3          	bnez	a5,13464 <_vfprintf_r+0x1a2c>
   135ac:	00100793          	li	a5,1
   135b0:	40b785bb          	subw	a1,a5,a1
   135b4:	08b12c23          	sw	a1,152(sp)
   135b8:	00b70733          	add	a4,a4,a1
   135bc:	8b1ff06f          	j	12e6c <_vfprintf_r+0x1434>
   135c0:	00000d93          	li	s11,0
   135c4:	ccdff06f          	j	13290 <_vfprintf_r+0x1858>
   135c8:	02813783          	ld	a5,40(sp)
   135cc:	0007a403          	lw	s0,0(a5)
   135d0:	00878793          	addi	a5,a5,8
   135d4:	02f13423          	sd	a5,40(sp)
   135d8:	00044463          	bltz	s0,135e0 <_vfprintf_r+0x1ba8>
   135dc:	e18fe06f          	j	11bf4 <_vfprintf_r+0x1bc>
   135e0:	fff00413          	li	s0,-1
   135e4:	e10fe06f          	j	11bf4 <_vfprintf_r+0x1bc>
   135e8:	00041a63          	bnez	s0,135fc <_vfprintf_r+0x1bc4>
   135ec:	00100793          	li	a5,1
   135f0:	00fc7c33          	and	s8,s8,a5
   135f4:	02f12023          	sw	a5,32(sp)
   135f8:	8e0c0ae3          	beqz	s8,12eec <_vfprintf_r+0x14b4>
   135fc:	0024079b          	addiw	a5,s0,2
   13600:	02f12023          	sw	a5,32(sp)
   13604:	8e07d4e3          	bgez	a5,12eec <_vfprintf_r+0x14b4>
   13608:	f91ff06f          	j	13598 <_vfprintf_r+0x1b60>
   1360c:	00fc7c33          	and	s8,s8,a5
   13610:	d80c1ee3          	bnez	s8,133ac <_vfprintf_r+0x1974>
   13614:	02012703          	lw	a4,32(sp)
   13618:	00070793          	mv	a5,a4
   1361c:	da0750e3          	bgez	a4,133bc <_vfprintf_r+0x1984>
   13620:	00000793          	li	a5,0
   13624:	d99ff06f          	j	133bc <_vfprintf_r+0x1984>
   13628:	00200793          	li	a5,2
   1362c:	40e787bb          	subw	a5,a5,a4
   13630:	e59ff06f          	j	13488 <_vfprintf_r+0x1a50>
   13634:	02d00713          	li	a4,45
   13638:	40f007bb          	negw	a5,a5
   1363c:	0ae100a3          	sb	a4,161(sp)
   13640:	d31ff06f          	j	13370 <_vfprintf_r+0x1938>
   13644:	08b107a3          	sb	a1,143(sp)
   13648:	ed9fe06f          	j	12520 <_vfprintf_r+0xae8>
   1364c:	00000793          	li	a5,0
   13650:	891ff06f          	j	12ee0 <_vfprintf_r+0x14a8>
   13654:	08b107a3          	sb	a1,143(sp)
   13658:	010c6c13          	ori	s8,s8,16
   1365c:	f2dfe06f          	j	12588 <_vfprintf_r+0xb50>
   13660:	08b107a3          	sb	a1,143(sp)
   13664:	ef5fe06f          	j	12558 <_vfprintf_r+0xb20>
   13668:	09812783          	lw	a5,152(sp)
   1366c:	cedff06f          	j	13358 <_vfprintf_r+0x1920>
   13670:	08b107a3          	sb	a1,143(sp)
   13674:	e2dfe06f          	j	124a0 <_vfprintf_r+0xa68>
   13678:	08b107a3          	sb	a1,143(sp)
   1367c:	dd5fe06f          	j	12450 <_vfprintf_r+0xa18>
   13680:	0a210793          	addi	a5,sp,162
   13684:	d09ff06f          	j	1338c <_vfprintf_r+0x1954>
   13688:	08b107a3          	sb	a1,143(sp)
   1368c:	f41fe06f          	j	125cc <_vfprintf_r+0xb94>
   13690:	08b107a3          	sb	a1,143(sp)
   13694:	f28fe06f          	j	11dbc <_vfprintf_r+0x384>
   13698:	08b107a3          	sb	a1,143(sp)
   1369c:	9c5fe06f          	j	12060 <_vfprintf_r+0x628>
   136a0:	08b107a3          	sb	a1,143(sp)
   136a4:	010c6c13          	ori	s8,s8,16
   136a8:	979fe06f          	j	12020 <_vfprintf_r+0x5e8>
   136ac:	08b107a3          	sb	a1,143(sp)
   136b0:	010c6c13          	ori	s8,s8,16
   136b4:	929fe06f          	j	11fdc <_vfprintf_r+0x5a4>
   136b8:	08b107a3          	sb	a1,143(sp)
   136bc:	881fe06f          	j	11f3c <_vfprintf_r+0x504>

00000000000136c0 <vfprintf>:
   136c0:	00060693          	mv	a3,a2
   136c4:	00058613          	mv	a2,a1
   136c8:	00050593          	mv	a1,a0
   136cc:	8181b503          	ld	a0,-2024(gp) # 24438 <_impure_ptr>
   136d0:	b68fe06f          	j	11a38 <_vfprintf_r>

00000000000136d4 <__sbprintf>:
   136d4:	0105d783          	lhu	a5,16(a1)
   136d8:	0ac5ae03          	lw	t3,172(a1)
   136dc:	0125d303          	lhu	t1,18(a1)
   136e0:	0305b883          	ld	a7,48(a1)
   136e4:	0405b803          	ld	a6,64(a1)
   136e8:	b3010113          	addi	sp,sp,-1232
   136ec:	ffd7f793          	andi	a5,a5,-3
   136f0:	40000713          	li	a4,1024
   136f4:	4c813023          	sd	s0,1216(sp)
   136f8:	00f11823          	sh	a5,16(sp)
   136fc:	00058413          	mv	s0,a1
   13700:	0b010793          	addi	a5,sp,176
   13704:	00010593          	mv	a1,sp
   13708:	4a913c23          	sd	s1,1208(sp)
   1370c:	4b213823          	sd	s2,1200(sp)
   13710:	4c113423          	sd	ra,1224(sp)
   13714:	00050913          	mv	s2,a0
   13718:	0bc12623          	sw	t3,172(sp)
   1371c:	00611923          	sh	t1,18(sp)
   13720:	03113823          	sd	a7,48(sp)
   13724:	05013023          	sd	a6,64(sp)
   13728:	00f13023          	sd	a5,0(sp)
   1372c:	00f13c23          	sd	a5,24(sp)
   13730:	00e12623          	sw	a4,12(sp)
   13734:	02e12023          	sw	a4,32(sp)
   13738:	02012423          	sw	zero,40(sp)
   1373c:	afcfe0ef          	jal	11a38 <_vfprintf_r>
   13740:	00050493          	mv	s1,a0
   13744:	00054a63          	bltz	a0,13758 <__sbprintf+0x84>
   13748:	00010593          	mv	a1,sp
   1374c:	00090513          	mv	a0,s2
   13750:	4cd020ef          	jal	1641c <_fflush_r>
   13754:	02051c63          	bnez	a0,1378c <__sbprintf+0xb8>
   13758:	01015783          	lhu	a5,16(sp)
   1375c:	0407f793          	andi	a5,a5,64
   13760:	00078863          	beqz	a5,13770 <__sbprintf+0x9c>
   13764:	01045783          	lhu	a5,16(s0)
   13768:	0407e793          	ori	a5,a5,64
   1376c:	00f41823          	sh	a5,16(s0)
   13770:	4c813083          	ld	ra,1224(sp)
   13774:	00048513          	mv	a0,s1
   13778:	4c013403          	ld	s0,1216(sp)
   1377c:	4b813483          	ld	s1,1208(sp)
   13780:	4b013903          	ld	s2,1200(sp)
   13784:	4d010113          	addi	sp,sp,1232
   13788:	00008067          	ret
   1378c:	fff00493          	li	s1,-1
   13790:	fc9ff06f          	j	13758 <__sbprintf+0x84>

0000000000013794 <__svfscanf_r>:
   13794:	cb010113          	addi	sp,sp,-848
   13798:	31813023          	sd	s8,768(sp)
   1379c:	00058c13          	mv	s8,a1
   137a0:	01059583          	lh	a1,16(a1)
   137a4:	34813023          	sd	s0,832(sp)
   137a8:	32913c23          	sd	s1,824(sp)
   137ac:	31613823          	sd	s6,784(sp)
   137b0:	34113423          	sd	ra,840(sp)
   137b4:	33213823          	sd	s2,816(sp)
   137b8:	33313423          	sd	s3,808(sp)
   137bc:	33413023          	sd	s4,800(sp)
   137c0:	31513c23          	sd	s5,792(sp)
   137c4:	31713423          	sd	s7,776(sp)
   137c8:	2f913c23          	sd	s9,760(sp)
   137cc:	2fa13823          	sd	s10,752(sp)
   137d0:	2fb13423          	sd	s11,744(sp)
   137d4:	2c813c27          	fsd	fs0,728(sp)
   137d8:	03259793          	slli	a5,a1,0x32
   137dc:	00050493          	mv	s1,a0
   137e0:	00060413          	mv	s0,a2
   137e4:	00068b13          	mv	s6,a3
   137e8:	0207c263          	bltz	a5,1380c <__svfscanf_r+0x78>
   137ec:	0acc2603          	lw	a2,172(s8)
   137f0:	ffffe737          	lui	a4,0xffffe
   137f4:	000026b7          	lui	a3,0x2
   137f8:	fff7071b          	addiw	a4,a4,-1
   137fc:	00d5e5b3          	or	a1,a1,a3
   13800:	00e67733          	and	a4,a2,a4
   13804:	00bc1823          	sh	a1,16(s8)
   13808:	0aec2623          	sw	a4,172(s8)
   1380c:	000217b7          	lui	a5,0x21
   13810:	c2078793          	addi	a5,a5,-992 # 20c20 <zeroes.4194+0x330>
   13814:	fffff737          	lui	a4,0xfffff
   13818:	000219b7          	lui	s3,0x21
   1381c:	00f13c23          	sd	a5,24(sp)
   13820:	47f7079b          	addiw	a5,a4,1151
   13824:	02013423          	sd	zero,40(sp)
   13828:	00012823          	sw	zero,16(sp)
   1382c:	00000b93          	li	s7,0
   13830:	00012a23          	sw	zero,20(sp)
   13834:	90098993          	addi	s3,s3,-1792 # 20900 <zeroes.4194+0x10>
   13838:	04f12423          	sw	a5,72(sp)
   1383c:	00044703          	lbu	a4,0(s0)
   13840:	00140413          	addi	s0,s0,1
   13844:	06e12223          	sw	a4,100(sp)
   13848:	00070693          	mv	a3,a4
   1384c:	06070e63          	beqz	a4,138c8 <__svfscanf_r+0x134>
   13850:	8301b503          	ld	a0,-2000(gp) # 24450 <__ctype_ptr__>
   13854:	00e50733          	add	a4,a0,a4
   13858:	00174703          	lbu	a4,1(a4) # fffffffffffff001 <_end+0xfffffffffffd8209>
   1385c:	00877713          	andi	a4,a4,8
   13860:	06070863          	beqz	a4,138d0 <__svfscanf_r+0x13c>
   13864:	008c2703          	lw	a4,8(s8)
   13868:	02e05e63          	blez	a4,138a4 <__svfscanf_r+0x110>
   1386c:	000c3683          	ld	a3,0(s8)
   13870:	8301b703          	ld	a4,-2000(gp) # 24450 <__ctype_ptr__>
   13874:	0006c603          	lbu	a2,0(a3) # 2000 <_ftext-0xe000>
   13878:	00c70733          	add	a4,a4,a2
   1387c:	00174703          	lbu	a4,1(a4)
   13880:	00877713          	andi	a4,a4,8
   13884:	fa070ce3          	beqz	a4,1383c <__svfscanf_r+0xa8>
   13888:	008c2703          	lw	a4,8(s8)
   1388c:	00168693          	addi	a3,a3,1
   13890:	00dc3023          	sd	a3,0(s8)
   13894:	fff7071b          	addiw	a4,a4,-1
   13898:	00ec2423          	sw	a4,8(s8)
   1389c:	001b8b9b          	addiw	s7,s7,1
   138a0:	fce046e3          	bgtz	a4,1386c <__svfscanf_r+0xd8>
   138a4:	000c0593          	mv	a1,s8
   138a8:	00048513          	mv	a0,s1
   138ac:	315050ef          	jal	193c0 <__srefill_r>
   138b0:	fa050ee3          	beqz	a0,1386c <__svfscanf_r+0xd8>
   138b4:	00044703          	lbu	a4,0(s0)
   138b8:	00140413          	addi	s0,s0,1
   138bc:	06e12223          	sw	a4,100(sp)
   138c0:	00070693          	mv	a3,a4
   138c4:	f80716e3          	bnez	a4,13850 <__svfscanf_r+0xbc>
   138c8:	01412503          	lw	a0,20(sp)
   138cc:	06c0006f          	j	13938 <__svfscanf_r+0x1a4>
   138d0:	02500713          	li	a4,37
   138d4:	02e69663          	bne	a3,a4,13900 <__svfscanf_r+0x16c>
   138d8:	00000a93          	li	s5,0
   138dc:	00000913          	li	s2,0
   138e0:	07800613          	li	a2,120
   138e4:	00140413          	addi	s0,s0,1
   138e8:	fff44683          	lbu	a3,-1(s0)
   138ec:	1ad66a63          	bltu	a2,a3,13aa0 <__svfscanf_r+0x30c>
   138f0:	00269713          	slli	a4,a3,0x2
   138f4:	01370733          	add	a4,a4,s3
   138f8:	00072703          	lw	a4,0(a4)
   138fc:	00070067          	jr	a4
   13900:	008c2703          	lw	a4,8(s8)
   13904:	58e05a63          	blez	a4,13e98 <__svfscanf_r+0x704>
   13908:	000c3703          	ld	a4,0(s8)
   1390c:	fff44683          	lbu	a3,-1(s0)
   13910:	00074603          	lbu	a2,0(a4)
   13914:	fad61ae3          	bne	a2,a3,138c8 <__svfscanf_r+0x134>
   13918:	008c2683          	lw	a3,8(s8)
   1391c:	00170713          	addi	a4,a4,1
   13920:	00ec3023          	sd	a4,0(s8)
   13924:	fff6871b          	addiw	a4,a3,-1
   13928:	00ec2423          	sw	a4,8(s8)
   1392c:	001b8b9b          	addiw	s7,s7,1
   13930:	f0dff06f          	j	1383c <__svfscanf_r+0xa8>
   13934:	fff00513          	li	a0,-1
   13938:	34813083          	ld	ra,840(sp)
   1393c:	34013403          	ld	s0,832(sp)
   13940:	33813483          	ld	s1,824(sp)
   13944:	33013903          	ld	s2,816(sp)
   13948:	32813983          	ld	s3,808(sp)
   1394c:	32013a03          	ld	s4,800(sp)
   13950:	31813a83          	ld	s5,792(sp)
   13954:	31013b03          	ld	s6,784(sp)
   13958:	30813b83          	ld	s7,776(sp)
   1395c:	30013c03          	ld	s8,768(sp)
   13960:	2f813c83          	ld	s9,760(sp)
   13964:	2f013d03          	ld	s10,752(sp)
   13968:	2e813d83          	ld	s11,744(sp)
   1396c:	2d813407          	fld	fs0,728(sp)
   13970:	35010113          	addi	sp,sp,848
   13974:	00008067          	ret
   13978:	008c2703          	lw	a4,8(s8)
   1397c:	0001ba37          	lui	s4,0x1b
   13980:	e74a0793          	addi	a5,s4,-396 # 1ae74 <_strtoul_r>
   13984:	02f13423          	sd	a5,40(sp)
   13988:	00a00793          	li	a5,10
   1398c:	00f12823          	sw	a5,16(sp)
   13990:	00300c93          	li	s9,3
   13994:	02e05e63          	blez	a4,139d0 <__svfscanf_r+0x23c>
   13998:	000c3683          	ld	a3,0(s8)
   1399c:	00c0006f          	j	139a8 <__svfscanf_r+0x214>
   139a0:	00168693          	addi	a3,a3,1
   139a4:	00dc3023          	sd	a3,0(s8)
   139a8:	0006c603          	lbu	a2,0(a3)
   139ac:	00c50733          	add	a4,a0,a2
   139b0:	00174703          	lbu	a4,1(a4)
   139b4:	00877593          	andi	a1,a4,8
   139b8:	58058063          	beqz	a1,13f38 <__svfscanf_r+0x7a4>
   139bc:	008c2703          	lw	a4,8(s8)
   139c0:	001b8b9b          	addiw	s7,s7,1
   139c4:	fff7071b          	addiw	a4,a4,-1
   139c8:	00ec2423          	sw	a4,8(s8)
   139cc:	fce04ae3          	bgtz	a4,139a0 <__svfscanf_r+0x20c>
   139d0:	000c0593          	mv	a1,s8
   139d4:	00048513          	mv	a0,s1
   139d8:	1e9050ef          	jal	193c0 <__srefill_r>
   139dc:	04051863          	bnez	a0,13a2c <__svfscanf_r+0x298>
   139e0:	8301b503          	ld	a0,-2000(gp) # 24450 <__ctype_ptr__>
   139e4:	fb5ff06f          	j	13998 <__svfscanf_r+0x204>
   139e8:	008c2703          	lw	a4,8(s8)
   139ec:	00200c93          	li	s9,2
   139f0:	fae044e3          	bgtz	a4,13998 <__svfscanf_r+0x204>
   139f4:	fddff06f          	j	139d0 <__svfscanf_r+0x23c>
   139f8:	008c2703          	lw	a4,8(s8)
   139fc:	220aea93          	ori	s5,s5,544
   13a00:	0001ba37          	lui	s4,0x1b
   13a04:	e74a0793          	addi	a5,s4,-396 # 1ae74 <_strtoul_r>
   13a08:	02f13423          	sd	a5,40(sp)
   13a0c:	01000793          	li	a5,16
   13a10:	00f12823          	sw	a5,16(sp)
   13a14:	00300c93          	li	s9,3
   13a18:	f8e040e3          	bgtz	a4,13998 <__svfscanf_r+0x204>
   13a1c:	000c0593          	mv	a1,s8
   13a20:	00048513          	mv	a0,s1
   13a24:	19d050ef          	jal	193c0 <__srefill_r>
   13a28:	fa050ce3          	beqz	a0,139e0 <__svfscanf_r+0x24c>
   13a2c:	01412703          	lw	a4,20(sp)
   13a30:	fff00513          	li	a0,-1
   13a34:	f00702e3          	beqz	a4,13938 <__svfscanf_r+0x1a4>
   13a38:	010c5783          	lhu	a5,16(s8)
   13a3c:	0407f793          	andi	a5,a5,64
   13a40:	ee079ce3          	bnez	a5,13938 <__svfscanf_r+0x1a4>
   13a44:	00070513          	mv	a0,a4
   13a48:	ef1ff06f          	j	13938 <__svfscanf_r+0x1a4>
   13a4c:	008c2703          	lw	a4,8(s8)
   13a50:	4ce05863          	blez	a4,13f20 <__svfscanf_r+0x78c>
   13a54:	0001ba37          	lui	s4,0x1b
   13a58:	e74a0793          	addi	a5,s4,-396 # 1ae74 <_strtoul_r>
   13a5c:	02f13423          	sd	a5,40(sp)
   13a60:	00800793          	li	a5,8
   13a64:	00f12823          	sw	a5,16(sp)
   13a68:	00300c93          	li	s9,3
   13a6c:	f2dff06f          	j	13998 <__svfscanf_r+0x204>
   13a70:	010af713          	andi	a4,s5,16
   13a74:	dc0714e3          	bnez	a4,1383c <__svfscanf_r+0xa8>
   13a78:	004af713          	andi	a4,s5,4
   13a7c:	42070e63          	beqz	a4,13eb8 <__svfscanf_r+0x724>
   13a80:	000b3703          	ld	a4,0(s6)
   13a84:	008b0b13          	addi	s6,s6,8
   13a88:	01771023          	sh	s7,0(a4)
   13a8c:	db1ff06f          	j	1383c <__svfscanf_r+0xa8>
   13a90:	00140413          	addi	s0,s0,1
   13a94:	fff44683          	lbu	a3,-1(s0)
   13a98:	001aea93          	ori	s5,s5,1
   13a9c:	e4d67ae3          	bleu	a3,a2,138f0 <__svfscanf_r+0x15c>
   13aa0:	00d506b3          	add	a3,a0,a3
   13aa4:	0016c703          	lbu	a4,1(a3)
   13aa8:	00100693          	li	a3,1
   13aac:	00377713          	andi	a4,a4,3
   13ab0:	3ed70e63          	beq	a4,a3,13eac <__svfscanf_r+0x718>
   13ab4:	008c2703          	lw	a4,8(s8)
   13ab8:	1440006f          	j	13bfc <__svfscanf_r+0x468>
   13abc:	004aea93          	ori	s5,s5,4
   13ac0:	e25ff06f          	j	138e4 <__svfscanf_r+0x150>
   13ac4:	008c2703          	lw	a4,8(s8)
   13ac8:	40e05463          	blez	a4,13ed0 <__svfscanf_r+0x73c>
   13acc:	0001ba37          	lui	s4,0x1b
   13ad0:	c84a0793          	addi	a5,s4,-892 # 1ac84 <_strtol_r>
   13ad4:	02f13423          	sd	a5,40(sp)
   13ad8:	00a00793          	li	a5,10
   13adc:	00f12823          	sw	a5,16(sp)
   13ae0:	00300c93          	li	s9,3
   13ae4:	eb5ff06f          	j	13998 <__svfscanf_r+0x204>
   13ae8:	008c2703          	lw	a4,8(s8)
   13aec:	34e05663          	blez	a4,13e38 <__svfscanf_r+0x6a4>
   13af0:	00091463          	bnez	s2,13af8 <__svfscanf_r+0x364>
   13af4:	00100913          	li	s2,1
   13af8:	001af713          	andi	a4,s5,1
   13afc:	22071063          	bnez	a4,13d1c <__svfscanf_r+0x588>
   13b00:	010afa93          	andi	s5,s5,16
   13b04:	360a8063          	beqz	s5,13e64 <__svfscanf_r+0x6d0>
   13b08:	00000a93          	li	s5,0
   13b0c:	0280006f          	j	13b34 <__svfscanf_r+0x3a0>
   13b10:	000c3683          	ld	a3,0(s8)
   13b14:	000c0593          	mv	a1,s8
   13b18:	00048513          	mv	a0,s1
   13b1c:	00e686b3          	add	a3,a3,a4
   13b20:	00dc3023          	sd	a3,0(s8)
   13b24:	00ea8ab3          	add	s5,s5,a4
   13b28:	40e90933          	sub	s2,s2,a4
   13b2c:	095050ef          	jal	193c0 <__srefill_r>
   13b30:	30051e63          	bnez	a0,13e4c <__svfscanf_r+0x6b8>
   13b34:	008c2703          	lw	a4,8(s8)
   13b38:	0009069b          	sext.w	a3,s2
   13b3c:	fcd74ae3          	blt	a4,a3,13b10 <__svfscanf_r+0x37c>
   13b40:	000c3603          	ld	a2,0(s8)
   13b44:	40d7073b          	subw	a4,a4,a3
   13b48:	012a8ab3          	add	s5,s5,s2
   13b4c:	01260333          	add	t1,a2,s2
   13b50:	00ec2423          	sw	a4,8(s8)
   13b54:	006c3023          	sd	t1,0(s8)
   13b58:	017a8bbb          	addw	s7,s5,s7
   13b5c:	ce1ff06f          	j	1383c <__svfscanf_r+0xa8>
   13b60:	00040593          	mv	a1,s0
   13b64:	07010513          	addi	a0,sp,112
   13b68:	2a1050ef          	jal	19608 <__sccl>
   13b6c:	008c2703          	lw	a4,8(s8)
   13b70:	00050413          	mv	s0,a0
   13b74:	38e05063          	blez	a4,13ef4 <__svfscanf_r+0x760>
   13b78:	000c3683          	ld	a3,0(s8)
   13b7c:	0006c703          	lbu	a4,0(a3)
   13b80:	10090263          	beqz	s2,13c84 <__svfscanf_r+0x4f0>
   13b84:	010afa93          	andi	s5,s5,16
   13b88:	100a8463          	beqz	s5,13c90 <__svfscanf_r+0x4fc>
   13b8c:	00000a93          	li	s5,0
   13b90:	0080006f          	j	13b98 <__svfscanf_r+0x404>
   13b94:	0006c703          	lbu	a4,0(a3)
   13b98:	2d010793          	addi	a5,sp,720
   13b9c:	00e78733          	add	a4,a5,a4
   13ba0:	da074703          	lbu	a4,-608(a4)
   13ba4:	2a070a63          	beqz	a4,13e58 <__svfscanf_r+0x6c4>
   13ba8:	008c2703          	lw	a4,8(s8)
   13bac:	00168693          	addi	a3,a3,1
   13bb0:	00dc3023          	sd	a3,0(s8)
   13bb4:	fff7071b          	addiw	a4,a4,-1
   13bb8:	00ec2423          	sw	a4,8(s8)
   13bbc:	fff90913          	addi	s2,s2,-1
   13bc0:	001a8a9b          	addiw	s5,s5,1
   13bc4:	14090863          	beqz	s2,13d14 <__svfscanf_r+0x580>
   13bc8:	fce046e3          	bgtz	a4,13b94 <__svfscanf_r+0x400>
   13bcc:	000c0593          	mv	a1,s8
   13bd0:	00048513          	mv	a0,s1
   13bd4:	7ec050ef          	jal	193c0 <__srefill_r>
   13bd8:	12051e63          	bnez	a0,13d14 <__svfscanf_r+0x580>
   13bdc:	000c3683          	ld	a3,0(s8)
   13be0:	fb5ff06f          	j	13b94 <__svfscanf_r+0x400>
   13be4:	008c2703          	lw	a4,8(s8)
   13be8:	00400c93          	li	s9,4
   13bec:	dae046e3          	bgtz	a4,13998 <__svfscanf_r+0x204>
   13bf0:	de1ff06f          	j	139d0 <__svfscanf_r+0x23c>
   13bf4:	008c2703          	lw	a4,8(s8)
   13bf8:	001aea93          	ori	s5,s5,1
   13bfc:	0001ba37          	lui	s4,0x1b
   13c00:	c84a0793          	addi	a5,s4,-892 # 1ac84 <_strtol_r>
   13c04:	d81ff06f          	j	13984 <__svfscanf_r+0x1f0>
   13c08:	0001ba37          	lui	s4,0x1b
   13c0c:	e74a0793          	addi	a5,s4,-396 # 1ae74 <_strtoul_r>
   13c10:	008c2703          	lw	a4,8(s8)
   13c14:	02f13423          	sd	a5,40(sp)
   13c18:	00800793          	li	a5,8
   13c1c:	00f12823          	sw	a5,16(sp)
   13c20:	001aea93          	ori	s5,s5,1
   13c24:	00300c93          	li	s9,3
   13c28:	d6e048e3          	bgtz	a4,13998 <__svfscanf_r+0x204>
   13c2c:	da5ff06f          	j	139d0 <__svfscanf_r+0x23c>
   13c30:	002aea93          	ori	s5,s5,2
   13c34:	cb1ff06f          	j	138e4 <__svfscanf_r+0x150>
   13c38:	008c2703          	lw	a4,8(s8)
   13c3c:	200aea93          	ori	s5,s5,512
   13c40:	dc1ff06f          	j	13a00 <__svfscanf_r+0x26c>
   13c44:	00191713          	slli	a4,s2,0x1
   13c48:	00391313          	slli	t1,s2,0x3
   13c4c:	00670333          	add	t1,a4,t1
   13c50:	fd068693          	addi	a3,a3,-48
   13c54:	00668933          	add	s2,a3,t1
   13c58:	c8dff06f          	j	138e4 <__svfscanf_r+0x150>
   13c5c:	010aea93          	ori	s5,s5,16
   13c60:	c85ff06f          	j	138e4 <__svfscanf_r+0x150>
   13c64:	008c2703          	lw	a4,8(s8)
   13c68:	2ae05063          	blez	a4,13f08 <__svfscanf_r+0x774>
   13c6c:	0001ba37          	lui	s4,0x1b
   13c70:	c84a0793          	addi	a5,s4,-892 # 1ac84 <_strtol_r>
   13c74:	02f13423          	sd	a5,40(sp)
   13c78:	00012823          	sw	zero,16(sp)
   13c7c:	00300c93          	li	s9,3
   13c80:	d19ff06f          	j	13998 <__svfscanf_r+0x204>
   13c84:	010afa93          	andi	s5,s5,16
   13c88:	fff00913          	li	s2,-1
   13c8c:	f00a90e3          	bnez	s5,13b8c <__svfscanf_r+0x3f8>
   13c90:	000b3a83          	ld	s5,0(s6)
   13c94:	008b0b13          	addi	s6,s6,8
   13c98:	012a8d33          	add	s10,s5,s2
   13c9c:	000a8c93          	mv	s9,s5
   13ca0:	00c0006f          	j	13cac <__svfscanf_r+0x518>
   13ca4:	000c3683          	ld	a3,0(s8)
   13ca8:	0006c703          	lbu	a4,0(a3)
   13cac:	2d010793          	addi	a5,sp,720
   13cb0:	00e78733          	add	a4,a5,a4
   13cb4:	da074703          	lbu	a4,-608(a4)
   13cb8:	04070263          	beqz	a4,13cfc <__svfscanf_r+0x568>
   13cbc:	008c2703          	lw	a4,8(s8)
   13cc0:	00168613          	addi	a2,a3,1
   13cc4:	00cc3023          	sd	a2,0(s8)
   13cc8:	fff7071b          	addiw	a4,a4,-1
   13ccc:	00ec2423          	sw	a4,8(s8)
   13cd0:	0006c703          	lbu	a4,0(a3)
   13cd4:	001c8c93          	addi	s9,s9,1
   13cd8:	feec8fa3          	sb	a4,-1(s9)
   13cdc:	03ac8063          	beq	s9,s10,13cfc <__svfscanf_r+0x568>
   13ce0:	008c2703          	lw	a4,8(s8)
   13ce4:	fce040e3          	bgtz	a4,13ca4 <__svfscanf_r+0x510>
   13ce8:	000c0593          	mv	a1,s8
   13cec:	00048513          	mv	a0,s1
   13cf0:	6d0050ef          	jal	193c0 <__srefill_r>
   13cf4:	fa0508e3          	beqz	a0,13ca4 <__svfscanf_r+0x510>
   13cf8:	d39a8ae3          	beq	s5,s9,13a2c <__svfscanf_r+0x298>
   13cfc:	415c8abb          	subw	s5,s9,s5
   13d00:	bc0a84e3          	beqz	s5,138c8 <__svfscanf_r+0x134>
   13d04:	01412783          	lw	a5,20(sp)
   13d08:	000c8023          	sb	zero,0(s9)
   13d0c:	0017879b          	addiw	a5,a5,1
   13d10:	00f12a23          	sw	a5,20(sp)
   13d14:	015b8bbb          	addw	s7,s7,s5
   13d18:	b25ff06f          	j	1383c <__svfscanf_r+0xa8>
   13d1c:	010af793          	andi	a5,s5,16
   13d20:	06810c93          	addi	s9,sp,104
   13d24:	00800613          	li	a2,8
   13d28:	00000593          	li	a1,0
   13d2c:	000c8513          	mv	a0,s9
   13d30:	00078a13          	mv	s4,a5
   13d34:	00f12423          	sw	a5,8(sp)
   13d38:	00000a93          	li	s5,0
   13d3c:	7ad030ef          	jal	17ce8 <memset>
   13d40:	0e0a0663          	beqz	s4,13e2c <__svfscanf_r+0x698>
   13d44:	00000a13          	li	s4,0
   13d48:	fff00d13          	li	s10,-1
   13d4c:	029030ef          	jal	17574 <__locale_mb_cur_max>
   13d50:	cd450ee3          	beq	a0,s4,13a2c <__svfscanf_r+0x298>
   13d54:	000c3683          	ld	a3,0(s8)
   13d58:	008c2603          	lw	a2,8(s8)
   13d5c:	001a0d9b          	addiw	s11,s4,1
   13d60:	0006ce83          	lbu	t4,0(a3)
   13d64:	fff6061b          	addiw	a2,a2,-1
   13d68:	00168693          	addi	a3,a3,1
   13d6c:	2d010793          	addi	a5,sp,720
   13d70:	014788b3          	add	a7,a5,s4
   13d74:	00cc2423          	sw	a2,8(s8)
   13d78:	00dc3023          	sd	a3,0(s8)
   13d7c:	000c8713          	mv	a4,s9
   13d80:	000d8693          	mv	a3,s11
   13d84:	17010613          	addi	a2,sp,368
   13d88:	000a8593          	mv	a1,s5
   13d8c:	00048513          	mv	a0,s1
   13d90:	ebd88023          	sb	t4,-352(a7)
   13d94:	1d1030ef          	jal	17764 <_mbrtowc_r>
   13d98:	c9a50ae3          	beq	a0,s10,13a2c <__svfscanf_r+0x298>
   13d9c:	04051263          	bnez	a0,13de0 <__svfscanf_r+0x64c>
   13da0:	00812783          	lw	a5,8(sp)
   13da4:	06079463          	bnez	a5,13e0c <__svfscanf_r+0x678>
   13da8:	000aa023          	sw	zero,0(s5)
   13dac:	01bb8bbb          	addw	s7,s7,s11
   13db0:	fff90913          	addi	s2,s2,-1
   13db4:	004a8a93          	addi	s5,s5,4
   13db8:	008c2683          	lw	a3,8(s8)
   13dbc:	00000a13          	li	s4,0
   13dc0:	02d05a63          	blez	a3,13df4 <__svfscanf_r+0x660>
   13dc4:	f80914e3          	bnez	s2,13d4c <__svfscanf_r+0x5b8>
   13dc8:	00812783          	lw	a5,8(sp)
   13dcc:	0017ba93          	seqz	s5,a5
   13dd0:	01412783          	lw	a5,20(sp)
   13dd4:	015787bb          	addw	a5,a5,s5
   13dd8:	00f12a23          	sw	a5,20(sp)
   13ddc:	a61ff06f          	j	1383c <__svfscanf_r+0xa8>
   13de0:	ffe00793          	li	a5,-2
   13de4:	02f51a63          	bne	a0,a5,13e18 <__svfscanf_r+0x684>
   13de8:	008c2703          	lw	a4,8(s8)
   13dec:	000d8a13          	mv	s4,s11
   13df0:	f4e04ee3          	bgtz	a4,13d4c <__svfscanf_r+0x5b8>
   13df4:	000c0593          	mv	a1,s8
   13df8:	00048513          	mv	a0,s1
   13dfc:	5c4050ef          	jal	193c0 <__srefill_r>
   13e00:	fc0502e3          	beqz	a0,13dc4 <__svfscanf_r+0x630>
   13e04:	fc0a02e3          	beqz	s4,13dc8 <__svfscanf_r+0x634>
   13e08:	c25ff06f          	j	13a2c <__svfscanf_r+0x298>
   13e0c:	01bb8bbb          	addw	s7,s7,s11
   13e10:	fff90913          	addi	s2,s2,-1
   13e14:	fa5ff06f          	j	13db8 <__svfscanf_r+0x624>
   13e18:	00812783          	lw	a5,8(sp)
   13e1c:	01bb8bbb          	addw	s7,s7,s11
   13e20:	fff90913          	addi	s2,s2,-1
   13e24:	f80788e3          	beqz	a5,13db4 <__svfscanf_r+0x620>
   13e28:	f91ff06f          	j	13db8 <__svfscanf_r+0x624>
   13e2c:	000b3a83          	ld	s5,0(s6)
   13e30:	008b0b13          	addi	s6,s6,8
   13e34:	f11ff06f          	j	13d44 <__svfscanf_r+0x5b0>
   13e38:	000c0593          	mv	a1,s8
   13e3c:	00048513          	mv	a0,s1
   13e40:	580050ef          	jal	193c0 <__srefill_r>
   13e44:	ca0506e3          	beqz	a0,13af0 <__svfscanf_r+0x35c>
   13e48:	be5ff06f          	j	13a2c <__svfscanf_r+0x298>
   13e4c:	be0a80e3          	beqz	s5,13a2c <__svfscanf_r+0x298>
   13e50:	017a8bbb          	addw	s7,s5,s7
   13e54:	9e9ff06f          	j	1383c <__svfscanf_r+0xa8>
   13e58:	a60a88e3          	beqz	s5,138c8 <__svfscanf_r+0x134>
   13e5c:	015b8bbb          	addw	s7,s7,s5
   13e60:	9ddff06f          	j	1383c <__svfscanf_r+0xa8>
   13e64:	000b3583          	ld	a1,0(s6)
   13e68:	000c0713          	mv	a4,s8
   13e6c:	00090693          	mv	a3,s2
   13e70:	00100613          	li	a2,1
   13e74:	00048513          	mv	a0,s1
   13e78:	191020ef          	jal	16808 <_fread_r>
   13e7c:	008b0b13          	addi	s6,s6,8
   13e80:	ba0506e3          	beqz	a0,13a2c <__svfscanf_r+0x298>
   13e84:	01412783          	lw	a5,20(sp)
   13e88:	01750bbb          	addw	s7,a0,s7
   13e8c:	0017879b          	addiw	a5,a5,1
   13e90:	00f12a23          	sw	a5,20(sp)
   13e94:	9a9ff06f          	j	1383c <__svfscanf_r+0xa8>
   13e98:	000c0593          	mv	a1,s8
   13e9c:	00048513          	mv	a0,s1
   13ea0:	520050ef          	jal	193c0 <__srefill_r>
   13ea4:	a60502e3          	beqz	a0,13908 <__svfscanf_r+0x174>
   13ea8:	b85ff06f          	j	13a2c <__svfscanf_r+0x298>
   13eac:	008c2703          	lw	a4,8(s8)
   13eb0:	00daeab3          	or	s5,s5,a3
   13eb4:	d49ff06f          	j	13bfc <__svfscanf_r+0x468>
   13eb8:	001afa93          	andi	s5,s5,1
   13ebc:	000b3703          	ld	a4,0(s6)
   13ec0:	020a8463          	beqz	s5,13ee8 <__svfscanf_r+0x754>
   13ec4:	008b0b13          	addi	s6,s6,8
   13ec8:	01773023          	sd	s7,0(a4)
   13ecc:	971ff06f          	j	1383c <__svfscanf_r+0xa8>
   13ed0:	000c0593          	mv	a1,s8
   13ed4:	00048513          	mv	a0,s1
   13ed8:	4e8050ef          	jal	193c0 <__srefill_r>
   13edc:	b40518e3          	bnez	a0,13a2c <__svfscanf_r+0x298>
   13ee0:	8301b503          	ld	a0,-2000(gp) # 24450 <__ctype_ptr__>
   13ee4:	be9ff06f          	j	13acc <__svfscanf_r+0x338>
   13ee8:	008b0b13          	addi	s6,s6,8
   13eec:	01772023          	sw	s7,0(a4)
   13ef0:	94dff06f          	j	1383c <__svfscanf_r+0xa8>
   13ef4:	000c0593          	mv	a1,s8
   13ef8:	00048513          	mv	a0,s1
   13efc:	4c4050ef          	jal	193c0 <__srefill_r>
   13f00:	c6050ce3          	beqz	a0,13b78 <__svfscanf_r+0x3e4>
   13f04:	b29ff06f          	j	13a2c <__svfscanf_r+0x298>
   13f08:	000c0593          	mv	a1,s8
   13f0c:	00048513          	mv	a0,s1
   13f10:	4b0050ef          	jal	193c0 <__srefill_r>
   13f14:	b0051ce3          	bnez	a0,13a2c <__svfscanf_r+0x298>
   13f18:	8301b503          	ld	a0,-2000(gp) # 24450 <__ctype_ptr__>
   13f1c:	d51ff06f          	j	13c6c <__svfscanf_r+0x4d8>
   13f20:	000c0593          	mv	a1,s8
   13f24:	00048513          	mv	a0,s1
   13f28:	498050ef          	jal	193c0 <__srefill_r>
   13f2c:	b00510e3          	bnez	a0,13a2c <__svfscanf_r+0x298>
   13f30:	8301b503          	ld	a0,-2000(gp) # 24450 <__ctype_ptr__>
   13f34:	b21ff06f          	j	13a54 <__svfscanf_r+0x2c0>
   13f38:	00300593          	li	a1,3
   13f3c:	3ebc8e63          	beq	s9,a1,14338 <__svfscanf_r+0xba4>
   13f40:	00400613          	li	a2,4
   13f44:	38cc9063          	bne	s9,a2,142c4 <__svfscanf_r+0xb30>
   13f48:	00048513          	mv	a0,s1
   13f4c:	644030ef          	jal	17590 <_localeconv_r>
   13f50:	00053783          	ld	a5,0(a0)
   13f54:	fff90713          	addi	a4,s2,-1
   13f58:	04012623          	sw	zero,76(sp)
   13f5c:	04f13023          	sd	a5,64(sp)
   13f60:	15c00693          	li	a3,348
   13f64:	00e6f863          	bleu	a4,a3,13f74 <__svfscanf_r+0x7e0>
   13f68:	ea39079b          	addiw	a5,s2,-349
   13f6c:	04f12623          	sw	a5,76(sp)
   13f70:	15d00913          	li	s2,349
   13f74:	17010793          	addi	a5,sp,368
   13f78:	00021637          	lui	a2,0x21
   13f7c:	780aea13          	ori	s4,s5,1920
   13f80:	02f13823          	sd	a5,48(sp)
   13f84:	00000c93          	li	s9,0
   13f88:	00000d13          	li	s10,0
   13f8c:	04013c23          	sd	zero,88(sp)
   13f90:	04013823          	sd	zero,80(sp)
   13f94:	00000a93          	li	s5,0
   13f98:	02013c23          	sd	zero,56(sp)
   13f9c:	00078d93          	mv	s11,a5
   13fa0:	04e00e93          	li	t4,78
   13fa4:	ae460613          	addi	a2,a2,-1308 # 20ae4 <zeroes.4194+0x1f4>
   13fa8:	000c3583          	ld	a1,0(s8)
   13fac:	0005c503          	lbu	a0,0(a1)
   13fb0:	fd55071b          	addiw	a4,a0,-43
   13fb4:	0ff77f93          	andi	t6,a4,255
   13fb8:	2dfee463          	bltu	t4,t6,14280 <__svfscanf_r+0xaec>
   13fbc:	0ff77713          	andi	a4,a4,255
   13fc0:	00271713          	slli	a4,a4,0x2
   13fc4:	00c70733          	add	a4,a4,a2
   13fc8:	00072703          	lw	a4,0(a4)
   13fcc:	00070067          	jr	a4
   13fd0:	019d073b          	addw	a4,s10,s9
   13fd4:	02071a63          	bnez	a4,14008 <__svfscanf_r+0x874>
   13fd8:	e7fa7a13          	andi	s4,s4,-385
   13fdc:	00ad8023          	sb	a0,0(s11)
   13fe0:	001d8d93          	addi	s11,s11,1
   13fe4:	008c2703          	lw	a4,8(s8)
   13fe8:	fff90913          	addi	s2,s2,-1
   13fec:	001b8b9b          	addiw	s7,s7,1
   13ff0:	fff7071b          	addiw	a4,a4,-1
   13ff4:	00ec2423          	sw	a4,8(s8)
   13ff8:	04e05c63          	blez	a4,14050 <__svfscanf_r+0x8bc>
   13ffc:	00158593          	addi	a1,a1,1
   14000:	00bc3023          	sd	a1,0(s8)
   14004:	fa0912e3          	bnez	s2,13fa8 <__svfscanf_r+0x814>
   14008:	0e0a8263          	beqz	s5,140ec <__svfscanf_r+0x958>
   1400c:	effa7a13          	andi	s4,s4,-257
   14010:	0dc0006f          	j	140ec <__svfscanf_r+0x958>
   14014:	100a7713          	andi	a4,s4,256
   14018:	fa070ce3          	beqz	a4,13fd0 <__svfscanf_r+0x83c>
   1401c:	04c12783          	lw	a5,76(sp)
   14020:	f7fa7a13          	andi	s4,s4,-129
   14024:	001a8a93          	addi	s5,s5,1
   14028:	fa078ee3          	beqz	a5,13fe4 <__svfscanf_r+0x850>
   1402c:	008c2703          	lw	a4,8(s8)
   14030:	fff7879b          	addiw	a5,a5,-1
   14034:	00190913          	addi	s2,s2,1
   14038:	fff7071b          	addiw	a4,a4,-1
   1403c:	04f12623          	sw	a5,76(sp)
   14040:	00ec2423          	sw	a4,8(s8)
   14044:	fff90913          	addi	s2,s2,-1
   14048:	001b8b9b          	addiw	s7,s7,1
   1404c:	fae048e3          	bgtz	a4,13ffc <__svfscanf_r+0x868>
   14050:	000c0593          	mv	a1,s8
   14054:	00048513          	mv	a0,s1
   14058:	02c13023          	sd	a2,32(sp)
   1405c:	01d13423          	sd	t4,8(sp)
   14060:	360050ef          	jal	193c0 <__srefill_r>
   14064:	00813e83          	ld	t4,8(sp)
   14068:	02013603          	ld	a2,32(sp)
   1406c:	f8051ee3          	bnez	a0,14008 <__svfscanf_r+0x874>
   14070:	f2091ce3          	bnez	s2,13fa8 <__svfscanf_r+0x814>
   14074:	f95ff06f          	j	14008 <__svfscanf_r+0x874>
   14078:	00700793          	li	a5,7
   1407c:	f8fc96e3          	bne	s9,a5,14008 <__svfscanf_r+0x874>
   14080:	00800c93          	li	s9,8
   14084:	f59ff06f          	j	13fdc <__svfscanf_r+0x848>
   14088:	080a7713          	andi	a4,s4,128
   1408c:	f6070ee3          	beqz	a4,14008 <__svfscanf_r+0x874>
   14090:	f7fa7a13          	andi	s4,s4,-129
   14094:	f49ff06f          	j	13fdc <__svfscanf_r+0x848>
   14098:	00600793          	li	a5,6
   1409c:	f6fc96e3          	bne	s9,a5,14008 <__svfscanf_r+0x874>
   140a0:	00700c93          	li	s9,7
   140a4:	f39ff06f          	j	13fdc <__svfscanf_r+0x848>
   140a8:	1e0d1c63          	bnez	s10,142a0 <__svfscanf_r+0xb0c>
   140ac:	000a9863          	bnez	s5,140bc <__svfscanf_r+0x928>
   140b0:	700a7713          	andi	a4,s4,1792
   140b4:	70000793          	li	a5,1792
   140b8:	56f70863          	beq	a4,a5,14628 <__svfscanf_r+0xe94>
   140bc:	00100713          	li	a4,1
   140c0:	00ec8663          	beq	s9,a4,140cc <__svfscanf_r+0x938>
   140c4:	00400713          	li	a4,4
   140c8:	f4ec90e3          	bne	s9,a4,14008 <__svfscanf_r+0x874>
   140cc:	001c8e1b          	addiw	t3,s9,1
   140d0:	0ffe7c93          	andi	s9,t3,255
   140d4:	f09ff06f          	j	13fdc <__svfscanf_r+0x848>
   140d8:	1c0c9c63          	bnez	s9,142b0 <__svfscanf_r+0xb1c>
   140dc:	f20a98e3          	bnez	s5,1400c <__svfscanf_r+0x878>
   140e0:	700a7713          	andi	a4,s4,1792
   140e4:	70000793          	li	a5,1792
   140e8:	54f70663          	beq	a4,a5,14634 <__svfscanf_r+0xea0>
   140ec:	fffd0f1b          	addiw	t5,s10,-1
   140f0:	00100713          	li	a4,1
   140f4:	6fe77c63          	bleu	t5,a4,147ec <__svfscanf_r+0x1058>
   140f8:	fffc871b          	addiw	a4,s9,-1
   140fc:	00600613          	li	a2,6
   14100:	06e66063          	bltu	a2,a4,14160 <__svfscanf_r+0x9cc>
   14104:	00200793          	li	a5,2
   14108:	7397fa63          	bleu	s9,a5,1483c <__svfscanf_r+0x10a8>
   1410c:	00300613          	li	a2,3
   14110:	0ff77713          	andi	a4,a4,255
   14114:	000d8d13          	mv	s10,s11
   14118:	00078913          	mv	s2,a5
   1411c:	04cc8263          	beq	s9,a2,14160 <__svfscanf_r+0x9cc>
   14120:	fffd0d13          	addi	s10,s10,-1
   14124:	000d4583          	lbu	a1,0(s10)
   14128:	000c0613          	mv	a2,s8
   1412c:	00048513          	mv	a0,s1
   14130:	00e13423          	sd	a4,8(sp)
   14134:	42d080ef          	jal	1cd60 <_ungetc_r>
   14138:	00813703          	ld	a4,8(sp)
   1413c:	fff7071b          	addiw	a4,a4,-1
   14140:	0ff77713          	andi	a4,a4,255
   14144:	fd271ee3          	bne	a4,s2,14120 <__svfscanf_r+0x98c>
   14148:	ffcc871b          	addiw	a4,s9,-4
   1414c:	0ff77713          	andi	a4,a4,255
   14150:	fff74613          	not	a2,a4
   14154:	fffb881b          	addiw	a6,s7,-1
   14158:	00cd8db3          	add	s11,s11,a2
   1415c:	40e80bbb          	subw	s7,a6,a4
   14160:	100a7713          	andi	a4,s4,256
   14164:	04070e63          	beqz	a4,141c0 <__svfscanf_r+0xa2c>
   14168:	400a7713          	andi	a4,s4,1024
   1416c:	6a071463          	bnez	a4,14814 <__svfscanf_r+0x1080>
   14170:	fffdc583          	lbu	a1,-1(s11)
   14174:	06500613          	li	a2,101
   14178:	fffd8d13          	addi	s10,s11,-1
   1417c:	fffb871b          	addiw	a4,s7,-1
   14180:	02c58263          	beq	a1,a2,141a4 <__svfscanf_r+0xa10>
   14184:	04500613          	li	a2,69
   14188:	00c58e63          	beq	a1,a2,141a4 <__svfscanf_r+0xa10>
   1418c:	000c0613          	mv	a2,s8
   14190:	00048513          	mv	a0,s1
   14194:	3cd080ef          	jal	1cd60 <_ungetc_r>
   14198:	ffedc583          	lbu	a1,-2(s11)
   1419c:	ffed8d13          	addi	s10,s11,-2
   141a0:	ffeb871b          	addiw	a4,s7,-2
   141a4:	000c0613          	mv	a2,s8
   141a8:	00048513          	mv	a0,s1
   141ac:	00e13423          	sd	a4,8(sp)
   141b0:	3b1080ef          	jal	1cd60 <_ungetc_r>
   141b4:	00813703          	ld	a4,8(sp)
   141b8:	000d0d93          	mv	s11,s10
   141bc:	00070b93          	mv	s7,a4
   141c0:	010a7713          	andi	a4,s4,16
   141c4:	e6071c63          	bnez	a4,1383c <__svfscanf_r+0xa8>
   141c8:	000d8023          	sb	zero,0(s11)
   141cc:	600a7713          	andi	a4,s4,1536
   141d0:	40000613          	li	a2,1024
   141d4:	48c70e63          	beq	a4,a2,14670 <__svfscanf_r+0xedc>
   141d8:	05013783          	ld	a5,80(sp)
   141dc:	4c079263          	bnez	a5,146a0 <__svfscanf_r+0xf0c>
   141e0:	03013583          	ld	a1,48(sp)
   141e4:	00000613          	li	a2,0
   141e8:	00048513          	mv	a0,s1
   141ec:	794050ef          	jal	19980 <_strtod_r>
   141f0:	001a7713          	andi	a4,s4,1
   141f4:	22a50453          	fmv.d	fs0,fa0
   141f8:	00071663          	bnez	a4,14204 <__svfscanf_r+0xa70>
   141fc:	002a7893          	andi	a7,s4,2
   14200:	4c088e63          	beqz	a7,146dc <__svfscanf_r+0xf48>
   14204:	000b3703          	ld	a4,0(s6)
   14208:	008b0b13          	addi	s6,s6,8
   1420c:	00873027          	fsd	fs0,0(a4)
   14210:	01412783          	lw	a5,20(sp)
   14214:	0017879b          	addiw	a5,a5,1
   14218:	00f12a23          	sw	a5,20(sp)
   1421c:	e20ff06f          	j	1383c <__svfscanf_r+0xa8>
   14220:	00200793          	li	a5,2
   14224:	defc92e3          	bne	s9,a5,14008 <__svfscanf_r+0x874>
   14228:	00300c93          	li	s9,3
   1422c:	db1ff06f          	j	13fdc <__svfscanf_r+0x848>
   14230:	500a7713          	andi	a4,s4,1280
   14234:	40000793          	li	a5,1024
   14238:	00f70863          	beq	a4,a5,14248 <__svfscanf_r+0xab4>
   1423c:	00fa7733          	and	a4,s4,a5
   14240:	dc0704e3          	beqz	a4,14008 <__svfscanf_r+0x874>
   14244:	ea0a84e3          	beqz	s5,140ec <__svfscanf_r+0x958>
   14248:	200a7713          	andi	a4,s4,512
   1424c:	00071a63          	bnez	a4,14260 <__svfscanf_r+0xacc>
   14250:	03813783          	ld	a5,56(sp)
   14254:	05b13c23          	sd	s11,88(sp)
   14258:	40fa87b3          	sub	a5,s5,a5
   1425c:	04f13823          	sd	a5,80(sp)
   14260:	87fa7a93          	andi	s5,s4,-1921
   14264:	180aea13          	ori	s4,s5,384
   14268:	00000a93          	li	s5,0
   1426c:	d71ff06f          	j	13fdc <__svfscanf_r+0x848>
   14270:	00100713          	li	a4,1
   14274:	d8ed1ae3          	bne	s10,a4,14008 <__svfscanf_r+0x874>
   14278:	00200d13          	li	s10,2
   1427c:	d61ff06f          	j	13fdc <__svfscanf_r+0x848>
   14280:	04013783          	ld	a5,64(sp)
   14284:	0007c703          	lbu	a4,0(a5)
   14288:	d8a710e3          	bne	a4,a0,14008 <__svfscanf_r+0x874>
   1428c:	200a7713          	andi	a4,s4,512
   14290:	d6070ce3          	beqz	a4,14008 <__svfscanf_r+0x874>
   14294:	d7fa7a13          	andi	s4,s4,-641
   14298:	03513c23          	sd	s5,56(sp)
   1429c:	d41ff06f          	j	13fdc <__svfscanf_r+0x848>
   142a0:	00200793          	li	a5,2
   142a4:	e0fd1ce3          	bne	s10,a5,140bc <__svfscanf_r+0x928>
   142a8:	00300d13          	li	s10,3
   142ac:	d31ff06f          	j	13fdc <__svfscanf_r+0x848>
   142b0:	ffdc871b          	addiw	a4,s9,-3
   142b4:	0fd77713          	andi	a4,a4,253
   142b8:	e0070ae3          	beqz	a4,140cc <__svfscanf_r+0x938>
   142bc:	e20a88e3          	beqz	s5,140ec <__svfscanf_r+0x958>
   142c0:	d4dff06f          	j	1400c <__svfscanf_r+0x878>
   142c4:	00091463          	bnez	s2,142cc <__svfscanf_r+0xb38>
   142c8:	fff00913          	li	s2,-1
   142cc:	001af613          	andi	a2,s5,1
   142d0:	2c061863          	bnez	a2,145a0 <__svfscanf_r+0xe0c>
   142d4:	010afa93          	andi	s5,s5,16
   142d8:	1e0a8e63          	beqz	s5,144d4 <__svfscanf_r+0xd40>
   142dc:	00000a93          	li	s5,0
   142e0:	0100006f          	j	142f0 <__svfscanf_r+0xb5c>
   142e4:	0006c703          	lbu	a4,0(a3)
   142e8:	00e50733          	add	a4,a0,a4
   142ec:	00174703          	lbu	a4,1(a4)
   142f0:	00877713          	andi	a4,a4,8
   142f4:	a20710e3          	bnez	a4,13d14 <__svfscanf_r+0x580>
   142f8:	008c2703          	lw	a4,8(s8)
   142fc:	00168693          	addi	a3,a3,1
   14300:	00dc3023          	sd	a3,0(s8)
   14304:	fff7071b          	addiw	a4,a4,-1
   14308:	00ec2423          	sw	a4,8(s8)
   1430c:	fff90913          	addi	s2,s2,-1
   14310:	001a8a9b          	addiw	s5,s5,1
   14314:	a00900e3          	beqz	s2,13d14 <__svfscanf_r+0x580>
   14318:	fce046e3          	bgtz	a4,142e4 <__svfscanf_r+0xb50>
   1431c:	000c0593          	mv	a1,s8
   14320:	00048513          	mv	a0,s1
   14324:	09c050ef          	jal	193c0 <__srefill_r>
   14328:	9e0516e3          	bnez	a0,13d14 <__svfscanf_r+0x580>
   1432c:	8301b503          	ld	a0,-2000(gp) # 24450 <__ctype_ptr__>
   14330:	000c3683          	ld	a3,0(s8)
   14334:	fb1ff06f          	j	142e4 <__svfscanf_r+0xb50>
   14338:	fff90713          	addi	a4,s2,-1
   1433c:	15c00593          	li	a1,348
   14340:	00000e13          	li	t3,0
   14344:	00e5f663          	bleu	a4,a1,14350 <__svfscanf_r+0xbbc>
   14348:	ea390e1b          	addiw	t3,s2,-349
   1434c:	15d00913          	li	s2,349
   14350:	17010793          	addi	a5,sp,368
   14354:	00001737          	lui	a4,0x1
   14358:	02f13823          	sd	a5,48(sp)
   1435c:	d807071b          	addiw	a4,a4,-640
   14360:	00078d13          	mv	s10,a5
   14364:	00021db7          	lui	s11,0x21
   14368:	000017b7          	lui	a5,0x1
   1436c:	00eaeab3          	or	s5,s5,a4
   14370:	00000a13          	li	s4,0
   14374:	d58d8d93          	addi	s11,s11,-680 # 20d58 <basefix.4147>
   14378:	80078c9b          	addiw	s9,a5,-2048
   1437c:	fd56071b          	addiw	a4,a2,-43
   14380:	0ff77513          	andi	a0,a4,255
   14384:	04d00593          	li	a1,77
   14388:	0aa5e063          	bltu	a1,a0,14428 <__svfscanf_r+0xc94>
   1438c:	01813783          	ld	a5,24(sp)
   14390:	0ff77713          	andi	a4,a4,255
   14394:	00271713          	slli	a4,a4,0x2
   14398:	00f70733          	add	a4,a4,a5
   1439c:	00072703          	lw	a4,0(a4) # 1000 <_ftext-0xf000>
   143a0:	00070067          	jr	a4
   143a4:	600af713          	andi	a4,s5,1536
   143a8:	20000593          	li	a1,512
   143ac:	06b71e63          	bne	a4,a1,14428 <__svfscanf_r+0xc94>
   143b0:	dffafa93          	andi	s5,s5,-513
   143b4:	01000793          	li	a5,16
   143b8:	500aea93          	ori	s5,s5,1280
   143bc:	00f12823          	sw	a5,16(sp)
   143c0:	00cd0023          	sb	a2,0(s10)
   143c4:	001d0d13          	addi	s10,s10,1
   143c8:	008c2703          	lw	a4,8(s8)
   143cc:	fff7071b          	addiw	a4,a4,-1
   143d0:	00ec2423          	sw	a4,8(s8)
   143d4:	0ee05263          	blez	a4,144b8 <__svfscanf_r+0xd24>
   143d8:	00168693          	addi	a3,a3,1
   143dc:	00dc3023          	sd	a3,0(s8)
   143e0:	fff90913          	addi	s2,s2,-1
   143e4:	04090263          	beqz	s2,14428 <__svfscanf_r+0xc94>
   143e8:	000c3683          	ld	a3,0(s8)
   143ec:	0006c603          	lbu	a2,0(a3)
   143f0:	f8dff06f          	j	1437c <__svfscanf_r+0xbe8>
   143f4:	01012783          	lw	a5,16(sp)
   143f8:	00a00713          	li	a4,10
   143fc:	02f75663          	ble	a5,a4,14428 <__svfscanf_r+0xc94>
   14400:	04812783          	lw	a5,72(sp)
   14404:	00fafab3          	and	s5,s5,a5
   14408:	fb9ff06f          	j	143c0 <__svfscanf_r+0xc2c>
   1440c:	01012703          	lw	a4,16(sp)
   14410:	00171713          	slli	a4,a4,0x1
   14414:	00ed8733          	add	a4,s11,a4
   14418:	00071783          	lh	a5,0(a4)
   1441c:	00800713          	li	a4,8
   14420:	00f12823          	sw	a5,16(sp)
   14424:	fcf74ee3          	blt	a4,a5,14400 <__svfscanf_r+0xc6c>
   14428:	100af713          	andi	a4,s5,256
   1442c:	00070a63          	beqz	a4,14440 <__svfscanf_r+0xcac>
   14430:	03013783          	ld	a5,48(sp)
   14434:	21a7e663          	bltu	a5,s10,14640 <__svfscanf_r+0xeac>
   14438:	03013783          	ld	a5,48(sp)
   1443c:	c8fd0663          	beq	s10,a5,138c8 <__svfscanf_r+0x134>
   14440:	010af713          	andi	a4,s5,16
   14444:	10070e63          	beqz	a4,14560 <__svfscanf_r+0xdcc>
   14448:	03013783          	ld	a5,48(sp)
   1444c:	017a083b          	addw	a6,s4,s7
   14450:	40fd0cb3          	sub	s9,s10,a5
   14454:	010c8bbb          	addw	s7,s9,a6
   14458:	be4ff06f          	j	1383c <__svfscanf_r+0xa8>
   1445c:	01012703          	lw	a4,16(sp)
   14460:	00171713          	slli	a4,a4,0x1
   14464:	00ed8733          	add	a4,s11,a4
   14468:	00071783          	lh	a5,0(a4)
   1446c:	00f12823          	sw	a5,16(sp)
   14470:	04812783          	lw	a5,72(sp)
   14474:	00fafab3          	and	s5,s5,a5
   14478:	f49ff06f          	j	143c0 <__svfscanf_r+0xc2c>
   1447c:	019af733          	and	a4,s5,s9
   14480:	f40700e3          	beqz	a4,143c0 <__svfscanf_r+0xc2c>
   14484:	01012783          	lw	a5,16(sp)
   14488:	00079863          	bnez	a5,14498 <__svfscanf_r+0xd04>
   1448c:	00800793          	li	a5,8
   14490:	200aea93          	ori	s5,s5,512
   14494:	00f12823          	sw	a5,16(sp)
   14498:	400af713          	andi	a4,s5,1024
   1449c:	16070a63          	beqz	a4,14610 <__svfscanf_r+0xe7c>
   144a0:	a7fafa93          	andi	s5,s5,-1409
   144a4:	f1dff06f          	j	143c0 <__svfscanf_r+0xc2c>
   144a8:	080af713          	andi	a4,s5,128
   144ac:	f6070ee3          	beqz	a4,14428 <__svfscanf_r+0xc94>
   144b0:	f7fafa93          	andi	s5,s5,-129
   144b4:	f0dff06f          	j	143c0 <__svfscanf_r+0xc2c>
   144b8:	000c0593          	mv	a1,s8
   144bc:	00048513          	mv	a0,s1
   144c0:	01c13423          	sd	t3,8(sp)
   144c4:	6fd040ef          	jal	193c0 <__srefill_r>
   144c8:	00813e03          	ld	t3,8(sp)
   144cc:	f0050ae3          	beqz	a0,143e0 <__svfscanf_r+0xc4c>
   144d0:	f59ff06f          	j	14428 <__svfscanf_r+0xc94>
   144d4:	000b3c83          	ld	s9,0(s6)
   144d8:	008b0b13          	addi	s6,s6,8
   144dc:	012c8d33          	add	s10,s9,s2
   144e0:	000c8a93          	mv	s5,s9
   144e4:	0180006f          	j	144fc <__svfscanf_r+0xd68>
   144e8:	000c3683          	ld	a3,0(s8)
   144ec:	8301b703          	ld	a4,-2000(gp) # 24450 <__ctype_ptr__>
   144f0:	0006c603          	lbu	a2,0(a3)
   144f4:	00c70733          	add	a4,a4,a2
   144f8:	00174703          	lbu	a4,1(a4)
   144fc:	00877713          	andi	a4,a4,8
   14500:	04071063          	bnez	a4,14540 <__svfscanf_r+0xdac>
   14504:	008c2703          	lw	a4,8(s8)
   14508:	00168613          	addi	a2,a3,1
   1450c:	00cc3023          	sd	a2,0(s8)
   14510:	fff7071b          	addiw	a4,a4,-1
   14514:	00ec2423          	sw	a4,8(s8)
   14518:	0006c703          	lbu	a4,0(a3)
   1451c:	001a8a93          	addi	s5,s5,1
   14520:	feea8fa3          	sb	a4,-1(s5)
   14524:	035d0063          	beq	s10,s5,14544 <__svfscanf_r+0xdb0>
   14528:	008c2703          	lw	a4,8(s8)
   1452c:	fae04ee3          	bgtz	a4,144e8 <__svfscanf_r+0xd54>
   14530:	000c0593          	mv	a1,s8
   14534:	00048513          	mv	a0,s1
   14538:	689040ef          	jal	193c0 <__srefill_r>
   1453c:	fa0506e3          	beqz	a0,144e8 <__svfscanf_r+0xd54>
   14540:	000a8d13          	mv	s10,s5
   14544:	01412783          	lw	a5,20(sp)
   14548:	419d0cb3          	sub	s9,s10,s9
   1454c:	000d0023          	sb	zero,0(s10)
   14550:	0017879b          	addiw	a5,a5,1
   14554:	017c8bbb          	addw	s7,s9,s7
   14558:	00f12a23          	sw	a5,20(sp)
   1455c:	ae0ff06f          	j	1383c <__svfscanf_r+0xa8>
   14560:	01012683          	lw	a3,16(sp)
   14564:	03013583          	ld	a1,48(sp)
   14568:	02813783          	ld	a5,40(sp)
   1456c:	00000613          	li	a2,0
   14570:	00048513          	mv	a0,s1
   14574:	000d0023          	sb	zero,0(s10)
   14578:	000780e7          	jalr	a5
   1457c:	020af713          	andi	a4,s5,32
   14580:	0c070c63          	beqz	a4,14658 <__svfscanf_r+0xec4>
   14584:	000b3703          	ld	a4,0(s6)
   14588:	008b0b13          	addi	s6,s6,8
   1458c:	00a73023          	sd	a0,0(a4)
   14590:	01412783          	lw	a5,20(sp)
   14594:	0017879b          	addiw	a5,a5,1
   14598:	00f12a23          	sw	a5,20(sp)
   1459c:	eadff06f          	j	14448 <__svfscanf_r+0xcb4>
   145a0:	010af793          	andi	a5,s5,16
   145a4:	06810c93          	addi	s9,sp,104
   145a8:	00800613          	li	a2,8
   145ac:	00000593          	li	a1,0
   145b0:	000c8513          	mv	a0,s9
   145b4:	00078a13          	mv	s4,a5
   145b8:	00f12423          	sw	a5,8(sp)
   145bc:	06410a93          	addi	s5,sp,100
   145c0:	728030ef          	jal	17ce8 <memset>
   145c4:	000a1663          	bnez	s4,145d0 <__svfscanf_r+0xe3c>
   145c8:	000b3a83          	ld	s5,0(s6)
   145cc:	008b0b13          	addi	s6,s6,8
   145d0:	00000a13          	li	s4,0
   145d4:	000c3603          	ld	a2,0(s8)
   145d8:	8301b683          	ld	a3,-2000(gp) # 24450 <__ctype_ptr__>
   145dc:	00064603          	lbu	a2,0(a2)
   145e0:	00c686b3          	add	a3,a3,a2
   145e4:	0016c683          	lbu	a3,1(a3)
   145e8:	0086f693          	andi	a3,a3,8
   145ec:	00069463          	bnez	a3,145f4 <__svfscanf_r+0xe60>
   145f0:	10091663          	bnez	s2,146fc <__svfscanf_r+0xf68>
   145f4:	00812783          	lw	a5,8(sp)
   145f8:	a4079263          	bnez	a5,1383c <__svfscanf_r+0xa8>
   145fc:	01412783          	lw	a5,20(sp)
   14600:	000aa023          	sw	zero,0(s5)
   14604:	0017879b          	addiw	a5,a5,1
   14608:	00f12a23          	sw	a5,20(sp)
   1460c:	a30ff06f          	j	1383c <__svfscanf_r+0xa8>
   14610:	c7fafa93          	andi	s5,s5,-897
   14614:	000e0663          	beqz	t3,14620 <__svfscanf_r+0xe8c>
   14618:	fffe0e1b          	addiw	t3,t3,-1
   1461c:	00190913          	addi	s2,s2,1
   14620:	001a0a1b          	addiw	s4,s4,1
   14624:	da5ff06f          	j	143c8 <__svfscanf_r+0xc34>
   14628:	87fa7a13          	andi	s4,s4,-1921
   1462c:	00100d13          	li	s10,1
   14630:	9adff06f          	j	13fdc <__svfscanf_r+0x848>
   14634:	87fa7a13          	andi	s4,s4,-1921
   14638:	00100c93          	li	s9,1
   1463c:	9a1ff06f          	j	13fdc <__svfscanf_r+0x848>
   14640:	fffd4583          	lbu	a1,-1(s10)
   14644:	000c0613          	mv	a2,s8
   14648:	00048513          	mv	a0,s1
   1464c:	fffd0d13          	addi	s10,s10,-1
   14650:	710080ef          	jal	1cd60 <_ungetc_r>
   14654:	de5ff06f          	j	14438 <__svfscanf_r+0xca4>
   14658:	004af713          	andi	a4,s5,4
   1465c:	06070463          	beqz	a4,146c4 <__svfscanf_r+0xf30>
   14660:	000b3703          	ld	a4,0(s6)
   14664:	008b0b13          	addi	s6,s6,8
   14668:	00a71023          	sh	a0,0(a4)
   1466c:	f25ff06f          	j	14590 <__svfscanf_r+0xdfc>
   14670:	03813783          	ld	a5,56(sp)
   14674:	40fa8ab3          	sub	s5,s5,a5
   14678:	41500633          	neg	a2,s5
   1467c:	b60a82e3          	beqz	s5,141e0 <__svfscanf_r+0xa4c>
   14680:	2b910713          	addi	a4,sp,697
   14684:	00ede463          	bltu	s11,a4,1468c <__svfscanf_r+0xef8>
   14688:	2b810d93          	addi	s11,sp,696
   1468c:	000225b7          	lui	a1,0x22
   14690:	d3858593          	addi	a1,a1,-712 # 21d38 <zeroes.4123+0x6d0>
   14694:	000d8513          	mv	a0,s11
   14698:	11c050ef          	jal	197b4 <sprintf>
   1469c:	b45ff06f          	j	141e0 <__svfscanf_r+0xa4c>
   146a0:	05813d83          	ld	s11,88(sp)
   146a4:	00000613          	li	a2,0
   146a8:	00a00693          	li	a3,10
   146ac:	001d8593          	addi	a1,s11,1
   146b0:	00048513          	mv	a0,s1
   146b4:	5d0060ef          	jal	1ac84 <_strtol_r>
   146b8:	05013783          	ld	a5,80(sp)
   146bc:	40f50633          	sub	a2,a0,a5
   146c0:	fc1ff06f          	j	14680 <__svfscanf_r+0xeec>
   146c4:	001afa93          	andi	s5,s5,1
   146c8:	000b3703          	ld	a4,0(s6)
   146cc:	008b0b13          	addi	s6,s6,8
   146d0:	0c0a8063          	beqz	s5,14790 <__svfscanf_r+0xffc>
   146d4:	00a73023          	sd	a0,0(a4)
   146d8:	eb9ff06f          	j	14590 <__svfscanf_r+0xdfc>
   146dc:	008b0a93          	addi	s5,s6,8
   146e0:	000b3c83          	ld	s9,0(s6)
   146e4:	7e9040ef          	jal	196cc <__fpclassifyd>
   146e8:	18050063          	beqz	a0,14868 <__svfscanf_r+0x10d4>
   146ec:	40147453          	fcvt.s.d	fs0,fs0
   146f0:	000a8b13          	mv	s6,s5
   146f4:	008ca027          	fsw	fs0,0(s9)
   146f8:	b19ff06f          	j	14210 <__svfscanf_r+0xa7c>
   146fc:	679020ef          	jal	17574 <__locale_mb_cur_max>
   14700:	b2aa0663          	beq	s4,a0,13a2c <__svfscanf_r+0x298>
   14704:	000c3683          	ld	a3,0(s8)
   14708:	008c2603          	lw	a2,8(s8)
   1470c:	2d010793          	addi	a5,sp,720
   14710:	0006cf03          	lbu	t5,0(a3)
   14714:	fff6061b          	addiw	a2,a2,-1
   14718:	00168693          	addi	a3,a3,1
   1471c:	001a0d1b          	addiw	s10,s4,1
   14720:	01478eb3          	add	t4,a5,s4
   14724:	00cc2423          	sw	a2,8(s8)
   14728:	00dc3023          	sd	a3,0(s8)
   1472c:	000c8713          	mv	a4,s9
   14730:	000d0693          	mv	a3,s10
   14734:	17010613          	addi	a2,sp,368
   14738:	000a8593          	mv	a1,s5
   1473c:	00048513          	mv	a0,s1
   14740:	ebee8023          	sb	t5,-352(t4)
   14744:	020030ef          	jal	17764 <_mbrtowc_r>
   14748:	fff00793          	li	a5,-1
   1474c:	aef50063          	beq	a0,a5,13a2c <__svfscanf_r+0x298>
   14750:	04051463          	bnez	a0,14798 <__svfscanf_r+0x1004>
   14754:	000aa023          	sw	zero,0(s5)
   14758:	00000513          	li	a0,0
   1475c:	565020ef          	jal	174c0 <iswspace>
   14760:	06050263          	beqz	a0,147c4 <__svfscanf_r+0x1030>
   14764:	e80d08e3          	beqz	s10,145f4 <__svfscanf_r+0xe60>
   14768:	fffd0d1b          	addiw	s10,s10,-1
   1476c:	000d0713          	mv	a4,s10
   14770:	2d010793          	addi	a5,sp,720
   14774:	00e78733          	add	a4,a5,a4
   14778:	ea074583          	lbu	a1,-352(a4)
   1477c:	000c0613          	mv	a2,s8
   14780:	00048513          	mv	a0,s1
   14784:	5dc080ef          	jal	1cd60 <_ungetc_r>
   14788:	fe0d10e3          	bnez	s10,14768 <__svfscanf_r+0xfd4>
   1478c:	e69ff06f          	j	145f4 <__svfscanf_r+0xe60>
   14790:	00a72023          	sw	a0,0(a4)
   14794:	dfdff06f          	j	14590 <__svfscanf_r+0xdfc>
   14798:	ffe00793          	li	a5,-2
   1479c:	000d0a13          	mv	s4,s10
   147a0:	04f51263          	bne	a0,a5,147e4 <__svfscanf_r+0x1050>
   147a4:	008c2683          	lw	a3,8(s8)
   147a8:	e2d046e3          	bgtz	a3,145d4 <__svfscanf_r+0xe40>
   147ac:	000c0593          	mv	a1,s8
   147b0:	00048513          	mv	a0,s1
   147b4:	40d040ef          	jal	193c0 <__srefill_r>
   147b8:	e0050ee3          	beqz	a0,145d4 <__svfscanf_r+0xe40>
   147bc:	a60a1863          	bnez	s4,13a2c <__svfscanf_r+0x298>
   147c0:	e35ff06f          	j	145f4 <__svfscanf_r+0xe60>
   147c4:	00812783          	lw	a5,8(sp)
   147c8:	01ab8bbb          	addw	s7,s7,s10
   147cc:	fff90913          	addi	s2,s2,-1
   147d0:	00000a13          	li	s4,0
   147d4:	fc0798e3          	bnez	a5,147a4 <__svfscanf_r+0x1010>
   147d8:	004a8a93          	addi	s5,s5,4
   147dc:	00078a13          	mv	s4,a5
   147e0:	fc5ff06f          	j	147a4 <__svfscanf_r+0x1010>
   147e4:	000aa503          	lw	a0,0(s5)
   147e8:	f75ff06f          	j	1475c <__svfscanf_r+0xfc8>
   147ec:	03013783          	ld	a5,48(sp)
   147f0:	8db7fc63          	bleu	s11,a5,138c8 <__svfscanf_r+0x134>
   147f4:	fffd8d93          	addi	s11,s11,-1
   147f8:	000dc583          	lbu	a1,0(s11)
   147fc:	000c0613          	mv	a2,s8
   14800:	00048513          	mv	a0,s1
   14804:	55c080ef          	jal	1cd60 <_ungetc_r>
   14808:	03013783          	ld	a5,48(sp)
   1480c:	fefd94e3          	bne	s11,a5,147f4 <__svfscanf_r+0x1060>
   14810:	8b8ff06f          	j	138c8 <__svfscanf_r+0x134>
   14814:	03013783          	ld	a5,48(sp)
   14818:	8bb7f863          	bleu	s11,a5,138c8 <__svfscanf_r+0x134>
   1481c:	fffd8d93          	addi	s11,s11,-1
   14820:	000dc583          	lbu	a1,0(s11)
   14824:	000c0613          	mv	a2,s8
   14828:	00048513          	mv	a0,s1
   1482c:	534080ef          	jal	1cd60 <_ungetc_r>
   14830:	03013783          	ld	a5,48(sp)
   14834:	fefd94e3          	bne	s11,a5,1481c <__svfscanf_r+0x1088>
   14838:	890ff06f          	j	138c8 <__svfscanf_r+0x134>
   1483c:	03013783          	ld	a5,48(sp)
   14840:	01b7e463          	bltu	a5,s11,14848 <__svfscanf_r+0x10b4>
   14844:	884ff06f          	j	138c8 <__svfscanf_r+0x134>
   14848:	fffd8d93          	addi	s11,s11,-1
   1484c:	000dc583          	lbu	a1,0(s11)
   14850:	000c0613          	mv	a2,s8
   14854:	00048513          	mv	a0,s1
   14858:	508080ef          	jal	1cd60 <_ungetc_r>
   1485c:	03013783          	ld	a5,48(sp)
   14860:	fefd94e3          	bne	s11,a5,14848 <__svfscanf_r+0x10b4>
   14864:	864ff06f          	j	138c8 <__svfscanf_r+0x134>
   14868:	00000513          	li	a0,0
   1486c:	655040ef          	jal	196c0 <nanf>
   14870:	00aca027          	fsw	fa0,0(s9)
   14874:	000a8b13          	mv	s6,s5
   14878:	999ff06f          	j	14210 <__svfscanf_r+0xa7c>

000000000001487c <vfscanf>:
   1487c:	fd010113          	addi	sp,sp,-48
   14880:	02813023          	sd	s0,32(sp)
   14884:	8181b403          	ld	s0,-2024(gp) # 24438 <_impure_ptr>
   14888:	00913c23          	sd	s1,24(sp)
   1488c:	02113423          	sd	ra,40(sp)
   14890:	00050493          	mv	s1,a0
   14894:	00060693          	mv	a3,a2
   14898:	02040263          	beqz	s0,148bc <vfscanf+0x40>
   1489c:	05042783          	lw	a5,80(s0)
   148a0:	00079e63          	bnez	a5,148bc <vfscanf+0x40>
   148a4:	00040513          	mv	a0,s0
   148a8:	00b13023          	sd	a1,0(sp)
   148ac:	00c13423          	sd	a2,8(sp)
   148b0:	719010ef          	jal	167c8 <__sinit>
   148b4:	00813683          	ld	a3,8(sp)
   148b8:	00013583          	ld	a1,0(sp)
   148bc:	00058613          	mv	a2,a1
   148c0:	00040513          	mv	a0,s0
   148c4:	00048593          	mv	a1,s1
   148c8:	02813083          	ld	ra,40(sp)
   148cc:	02013403          	ld	s0,32(sp)
   148d0:	01813483          	ld	s1,24(sp)
   148d4:	03010113          	addi	sp,sp,48
   148d8:	ebdfe06f          	j	13794 <__svfscanf_r>

00000000000148dc <__svfscanf>:
   148dc:	00060693          	mv	a3,a2
   148e0:	00058613          	mv	a2,a1
   148e4:	00050593          	mv	a1,a0
   148e8:	8181b503          	ld	a0,-2024(gp) # 24438 <_impure_ptr>
   148ec:	ea9fe06f          	j	13794 <__svfscanf_r>

00000000000148f0 <_vfscanf_r>:
   148f0:	fd010113          	addi	sp,sp,-48
   148f4:	02813023          	sd	s0,32(sp)
   148f8:	02113423          	sd	ra,40(sp)
   148fc:	00050413          	mv	s0,a0
   14900:	02050463          	beqz	a0,14928 <_vfscanf_r+0x38>
   14904:	05052783          	lw	a5,80(a0)
   14908:	02079063          	bnez	a5,14928 <_vfscanf_r+0x38>
   1490c:	00d13c23          	sd	a3,24(sp)
   14910:	00c13823          	sd	a2,16(sp)
   14914:	00b13423          	sd	a1,8(sp)
   14918:	6b1010ef          	jal	167c8 <__sinit>
   1491c:	01813683          	ld	a3,24(sp)
   14920:	01013603          	ld	a2,16(sp)
   14924:	00813583          	ld	a1,8(sp)
   14928:	00040513          	mv	a0,s0
   1492c:	02813083          	ld	ra,40(sp)
   14930:	02013403          	ld	s0,32(sp)
   14934:	03010113          	addi	sp,sp,48
   14938:	e5dfe06f          	j	13794 <__svfscanf_r>

000000000001493c <__swbuf_r>:
   1493c:	fd010113          	addi	sp,sp,-48
   14940:	02813023          	sd	s0,32(sp)
   14944:	00913c23          	sd	s1,24(sp)
   14948:	01313423          	sd	s3,8(sp)
   1494c:	02113423          	sd	ra,40(sp)
   14950:	01213823          	sd	s2,16(sp)
   14954:	00050493          	mv	s1,a0
   14958:	00058993          	mv	s3,a1
   1495c:	00060413          	mv	s0,a2
   14960:	00050663          	beqz	a0,1496c <__swbuf_r+0x30>
   14964:	05052783          	lw	a5,80(a0)
   14968:	12078e63          	beqz	a5,14aa4 <__swbuf_r+0x168>
   1496c:	01041683          	lh	a3,16(s0)
   14970:	02842783          	lw	a5,40(s0)
   14974:	03069713          	slli	a4,a3,0x30
   14978:	03075713          	srli	a4,a4,0x30
   1497c:	00f42623          	sw	a5,12(s0)
   14980:	00877793          	andi	a5,a4,8
   14984:	0e078e63          	beqz	a5,14a80 <__swbuf_r+0x144>
   14988:	01843783          	ld	a5,24(s0)
   1498c:	0e078a63          	beqz	a5,14a80 <__swbuf_r+0x144>
   14990:	03271613          	slli	a2,a4,0x32
   14994:	0ff9f913          	andi	s2,s3,255
   14998:	06065663          	bgez	a2,14a04 <__swbuf_r+0xc8>
   1499c:	00043703          	ld	a4,0(s0)
   149a0:	02042683          	lw	a3,32(s0)
   149a4:	40f707bb          	subw	a5,a4,a5
   149a8:	08d7d663          	ble	a3,a5,14a34 <__swbuf_r+0xf8>
   149ac:	0017879b          	addiw	a5,a5,1
   149b0:	00c42683          	lw	a3,12(s0)
   149b4:	00170613          	addi	a2,a4,1
   149b8:	00c43023          	sd	a2,0(s0)
   149bc:	fff6869b          	addiw	a3,a3,-1
   149c0:	00d42623          	sw	a3,12(s0)
   149c4:	01370023          	sb	s3,0(a4)
   149c8:	02042703          	lw	a4,32(s0)
   149cc:	08f70263          	beq	a4,a5,14a50 <__swbuf_r+0x114>
   149d0:	01045783          	lhu	a5,16(s0)
   149d4:	00090513          	mv	a0,s2
   149d8:	0017f793          	andi	a5,a5,1
   149dc:	00078663          	beqz	a5,149e8 <__swbuf_r+0xac>
   149e0:	00a00793          	li	a5,10
   149e4:	06f90663          	beq	s2,a5,14a50 <__swbuf_r+0x114>
   149e8:	02813083          	ld	ra,40(sp)
   149ec:	02013403          	ld	s0,32(sp)
   149f0:	01813483          	ld	s1,24(sp)
   149f4:	01013903          	ld	s2,16(sp)
   149f8:	00813983          	ld	s3,8(sp)
   149fc:	03010113          	addi	sp,sp,48
   14a00:	00008067          	ret
   14a04:	0ac42583          	lw	a1,172(s0)
   14a08:	ffffe737          	lui	a4,0xffffe
   14a0c:	fff7071b          	addiw	a4,a4,-1
   14a10:	00e5f733          	and	a4,a1,a4
   14a14:	00002637          	lui	a2,0x2
   14a18:	00c6e6b3          	or	a3,a3,a2
   14a1c:	0ae42623          	sw	a4,172(s0)
   14a20:	00043703          	ld	a4,0(s0)
   14a24:	00d41823          	sh	a3,16(s0)
   14a28:	02042683          	lw	a3,32(s0)
   14a2c:	40f707bb          	subw	a5,a4,a5
   14a30:	f6d7cee3          	blt	a5,a3,149ac <__swbuf_r+0x70>
   14a34:	00040593          	mv	a1,s0
   14a38:	00048513          	mv	a0,s1
   14a3c:	1e1010ef          	jal	1641c <_fflush_r>
   14a40:	06051663          	bnez	a0,14aac <__swbuf_r+0x170>
   14a44:	00043703          	ld	a4,0(s0)
   14a48:	00100793          	li	a5,1
   14a4c:	f65ff06f          	j	149b0 <__swbuf_r+0x74>
   14a50:	00040593          	mv	a1,s0
   14a54:	00048513          	mv	a0,s1
   14a58:	1c5010ef          	jal	1641c <_fflush_r>
   14a5c:	04051863          	bnez	a0,14aac <__swbuf_r+0x170>
   14a60:	02813083          	ld	ra,40(sp)
   14a64:	00090513          	mv	a0,s2
   14a68:	02013403          	ld	s0,32(sp)
   14a6c:	01813483          	ld	s1,24(sp)
   14a70:	01013903          	ld	s2,16(sp)
   14a74:	00813983          	ld	s3,8(sp)
   14a78:	03010113          	addi	sp,sp,48
   14a7c:	00008067          	ret
   14a80:	00040593          	mv	a1,s0
   14a84:	00048513          	mv	a0,s1
   14a88:	03c000ef          	jal	14ac4 <__swsetup_r>
   14a8c:	02051063          	bnez	a0,14aac <__swbuf_r+0x170>
   14a90:	01041683          	lh	a3,16(s0)
   14a94:	01843783          	ld	a5,24(s0)
   14a98:	03069713          	slli	a4,a3,0x30
   14a9c:	03075713          	srli	a4,a4,0x30
   14aa0:	ef1ff06f          	j	14990 <__swbuf_r+0x54>
   14aa4:	525010ef          	jal	167c8 <__sinit>
   14aa8:	ec5ff06f          	j	1496c <__swbuf_r+0x30>
   14aac:	fff00513          	li	a0,-1
   14ab0:	f39ff06f          	j	149e8 <__swbuf_r+0xac>

0000000000014ab4 <__swbuf>:
   14ab4:	00058613          	mv	a2,a1
   14ab8:	00050593          	mv	a1,a0
   14abc:	8181b503          	ld	a0,-2024(gp) # 24438 <_impure_ptr>
   14ac0:	e7dff06f          	j	1493c <__swbuf_r>

0000000000014ac4 <__swsetup_r>:
   14ac4:	8181b783          	ld	a5,-2024(gp) # 24438 <_impure_ptr>
   14ac8:	fe010113          	addi	sp,sp,-32
   14acc:	00813823          	sd	s0,16(sp)
   14ad0:	00913423          	sd	s1,8(sp)
   14ad4:	00113c23          	sd	ra,24(sp)
   14ad8:	00050493          	mv	s1,a0
   14adc:	00058413          	mv	s0,a1
   14ae0:	00078663          	beqz	a5,14aec <__swsetup_r+0x28>
   14ae4:	0507a703          	lw	a4,80(a5) # 1050 <_ftext-0xefb0>
   14ae8:	0e070063          	beqz	a4,14bc8 <__swsetup_r+0x104>
   14aec:	01041703          	lh	a4,16(s0)
   14af0:	03071793          	slli	a5,a4,0x30
   14af4:	0307d793          	srli	a5,a5,0x30
   14af8:	0087f693          	andi	a3,a5,8
   14afc:	04068263          	beqz	a3,14b40 <__swsetup_r+0x7c>
   14b00:	01843683          	ld	a3,24(s0)
   14b04:	06068663          	beqz	a3,14b70 <__swsetup_r+0xac>
   14b08:	0017f713          	andi	a4,a5,1
   14b0c:	08071463          	bnez	a4,14b94 <__swsetup_r+0xd0>
   14b10:	0027f793          	andi	a5,a5,2
   14b14:	00000713          	li	a4,0
   14b18:	00079463          	bnez	a5,14b20 <__swsetup_r+0x5c>
   14b1c:	02042703          	lw	a4,32(s0)
   14b20:	00e42623          	sw	a4,12(s0)
   14b24:	00000513          	li	a0,0
   14b28:	08068263          	beqz	a3,14bac <__swsetup_r+0xe8>
   14b2c:	01813083          	ld	ra,24(sp)
   14b30:	01013403          	ld	s0,16(sp)
   14b34:	00813483          	ld	s1,8(sp)
   14b38:	02010113          	addi	sp,sp,32
   14b3c:	00008067          	ret
   14b40:	0107f693          	andi	a3,a5,16
   14b44:	0c068663          	beqz	a3,14c10 <__swsetup_r+0x14c>
   14b48:	0047f793          	andi	a5,a5,4
   14b4c:	08079463          	bnez	a5,14bd4 <__swsetup_r+0x110>
   14b50:	01843683          	ld	a3,24(s0)
   14b54:	00876793          	ori	a5,a4,8
   14b58:	0107979b          	slliw	a5,a5,0x10
   14b5c:	4107d79b          	sraiw	a5,a5,0x10
   14b60:	00f41823          	sh	a5,16(s0)
   14b64:	03079793          	slli	a5,a5,0x30
   14b68:	0307d793          	srli	a5,a5,0x30
   14b6c:	f8069ee3          	bnez	a3,14b08 <__swsetup_r+0x44>
   14b70:	2807f713          	andi	a4,a5,640
   14b74:	20000613          	li	a2,512
   14b78:	f8c708e3          	beq	a4,a2,14b08 <__swsetup_r+0x44>
   14b7c:	00040593          	mv	a1,s0
   14b80:	00048513          	mv	a0,s1
   14b84:	235020ef          	jal	175b8 <__smakebuf_r>
   14b88:	01045783          	lhu	a5,16(s0)
   14b8c:	01843683          	ld	a3,24(s0)
   14b90:	f79ff06f          	j	14b08 <__swsetup_r+0x44>
   14b94:	02042783          	lw	a5,32(s0)
   14b98:	00042623          	sw	zero,12(s0)
   14b9c:	00000513          	li	a0,0
   14ba0:	40f007bb          	negw	a5,a5
   14ba4:	02f42423          	sw	a5,40(s0)
   14ba8:	f80692e3          	bnez	a3,14b2c <__swsetup_r+0x68>
   14bac:	01041783          	lh	a5,16(s0)
   14bb0:	0807f713          	andi	a4,a5,128
   14bb4:	f6070ce3          	beqz	a4,14b2c <__swsetup_r+0x68>
   14bb8:	0407e793          	ori	a5,a5,64
   14bbc:	00f41823          	sh	a5,16(s0)
   14bc0:	fff00513          	li	a0,-1
   14bc4:	f69ff06f          	j	14b2c <__swsetup_r+0x68>
   14bc8:	00078513          	mv	a0,a5
   14bcc:	3fd010ef          	jal	167c8 <__sinit>
   14bd0:	f1dff06f          	j	14aec <__swsetup_r+0x28>
   14bd4:	05843583          	ld	a1,88(s0)
   14bd8:	00058e63          	beqz	a1,14bf4 <__swsetup_r+0x130>
   14bdc:	07440793          	addi	a5,s0,116
   14be0:	00f58863          	beq	a1,a5,14bf0 <__swsetup_r+0x12c>
   14be4:	00048513          	mv	a0,s1
   14be8:	7a5010ef          	jal	16b8c <_free_r>
   14bec:	01041703          	lh	a4,16(s0)
   14bf0:	04043c23          	sd	zero,88(s0)
   14bf4:	01843683          	ld	a3,24(s0)
   14bf8:	fdb77713          	andi	a4,a4,-37
   14bfc:	0107171b          	slliw	a4,a4,0x10
   14c00:	4107571b          	sraiw	a4,a4,0x10
   14c04:	00042423          	sw	zero,8(s0)
   14c08:	00d43023          	sd	a3,0(s0)
   14c0c:	f49ff06f          	j	14b54 <__swsetup_r+0x90>
   14c10:	00900793          	li	a5,9
   14c14:	00f4a023          	sw	a5,0(s1)
   14c18:	04076713          	ori	a4,a4,64
   14c1c:	00e41823          	sh	a4,16(s0)
   14c20:	fff00513          	li	a0,-1
   14c24:	f09ff06f          	j	14b2c <__swsetup_r+0x68>

0000000000014c28 <__register_exitproc>:
   14c28:	fd010113          	addi	sp,sp,-48
   14c2c:	02813023          	sd	s0,32(sp)
   14c30:	8101b403          	ld	s0,-2032(gp) # 24430 <_global_impure_ptr>
   14c34:	00913c23          	sd	s1,24(sp)
   14c38:	00050493          	mv	s1,a0
   14c3c:	1f843503          	ld	a0,504(s0)
   14c40:	01213823          	sd	s2,16(sp)
   14c44:	01313423          	sd	s3,8(sp)
   14c48:	01413023          	sd	s4,0(sp)
   14c4c:	02113423          	sd	ra,40(sp)
   14c50:	00058913          	mv	s2,a1
   14c54:	00060a13          	mv	s4,a2
   14c58:	00068993          	mv	s3,a3
   14c5c:	0c050463          	beqz	a0,14d24 <__register_exitproc+0xfc>
   14c60:	00852703          	lw	a4,8(a0)
   14c64:	01f00793          	li	a5,31
   14c68:	0017059b          	addiw	a1,a4,1
   14c6c:	02e7de63          	ble	a4,a5,14ca8 <__register_exitproc+0x80>
   14c70:	000117b7          	lui	a5,0x11
   14c74:	d4c78793          	addi	a5,a5,-692 # 10d4c <malloc>
   14c78:	0a078c63          	beqz	a5,14d30 <__register_exitproc+0x108>
   14c7c:	31800513          	li	a0,792
   14c80:	8ccfc0ef          	jal	10d4c <malloc>
   14c84:	0a050663          	beqz	a0,14d30 <__register_exitproc+0x108>
   14c88:	1f843783          	ld	a5,504(s0)
   14c8c:	00052423          	sw	zero,8(a0)
   14c90:	00100593          	li	a1,1
   14c94:	00f53023          	sd	a5,0(a0)
   14c98:	1ea43c23          	sd	a0,504(s0)
   14c9c:	30052823          	sw	zero,784(a0)
   14ca0:	30052a23          	sw	zero,788(a0)
   14ca4:	00000713          	li	a4,0
   14ca8:	00070793          	mv	a5,a4
   14cac:	02049e63          	bnez	s1,14ce8 <__register_exitproc+0xc0>
   14cb0:	00278793          	addi	a5,a5,2
   14cb4:	00379793          	slli	a5,a5,0x3
   14cb8:	00b52423          	sw	a1,8(a0)
   14cbc:	00f50533          	add	a0,a0,a5
   14cc0:	01253023          	sd	s2,0(a0)
   14cc4:	00000513          	li	a0,0
   14cc8:	02813083          	ld	ra,40(sp)
   14ccc:	02013403          	ld	s0,32(sp)
   14cd0:	01813483          	ld	s1,24(sp)
   14cd4:	01013903          	ld	s2,16(sp)
   14cd8:	00813983          	ld	s3,8(sp)
   14cdc:	00013a03          	ld	s4,0(sp)
   14ce0:	03010113          	addi	sp,sp,48
   14ce4:	00008067          	ret
   14ce8:	00371813          	slli	a6,a4,0x3
   14cec:	01050833          	add	a6,a0,a6
   14cf0:	11483823          	sd	s4,272(a6)
   14cf4:	31052883          	lw	a7,784(a0)
   14cf8:	00100613          	li	a2,1
   14cfc:	00e6173b          	sllw	a4,a2,a4
   14d00:	00e8e633          	or	a2,a7,a4
   14d04:	30c52823          	sw	a2,784(a0)
   14d08:	21383823          	sd	s3,528(a6)
   14d0c:	00200693          	li	a3,2
   14d10:	fad490e3          	bne	s1,a3,14cb0 <__register_exitproc+0x88>
   14d14:	31452683          	lw	a3,788(a0)
   14d18:	00e6e733          	or	a4,a3,a4
   14d1c:	30e52a23          	sw	a4,788(a0)
   14d20:	f91ff06f          	j	14cb0 <__register_exitproc+0x88>
   14d24:	20040513          	addi	a0,s0,512
   14d28:	1ea43c23          	sd	a0,504(s0)
   14d2c:	f35ff06f          	j	14c60 <__register_exitproc+0x38>
   14d30:	fff00513          	li	a0,-1
   14d34:	f95ff06f          	j	14cc8 <__register_exitproc+0xa0>

0000000000014d38 <__call_exitprocs>:
   14d38:	fa010113          	addi	sp,sp,-96
   14d3c:	03413823          	sd	s4,48(sp)
   14d40:	8101ba03          	ld	s4,-2032(gp) # 24430 <_global_impure_ptr>
   14d44:	03313c23          	sd	s3,56(sp)
   14d48:	000119b7          	lui	s3,0x11
   14d4c:	04913423          	sd	s1,72(sp)
   14d50:	05213023          	sd	s2,64(sp)
   14d54:	03513423          	sd	s5,40(sp)
   14d58:	01713c23          	sd	s7,24(sp)
   14d5c:	01813823          	sd	s8,16(sp)
   14d60:	04113c23          	sd	ra,88(sp)
   14d64:	04813823          	sd	s0,80(sp)
   14d68:	03613023          	sd	s6,32(sp)
   14d6c:	01913423          	sd	s9,8(sp)
   14d70:	01a13023          	sd	s10,0(sp)
   14d74:	00050913          	mv	s2,a0
   14d78:	00058b93          	mv	s7,a1
   14d7c:	1f8a0a93          	addi	s5,s4,504
   14d80:	00100493          	li	s1,1
   14d84:	fff00c13          	li	s8,-1
   14d88:	d5898993          	addi	s3,s3,-680 # 10d58 <free>
   14d8c:	1f8a3b03          	ld	s6,504(s4)
   14d90:	0c0b0463          	beqz	s6,14e58 <__call_exitprocs+0x120>
   14d94:	000a8d13          	mv	s10,s5
   14d98:	008b2403          	lw	s0,8(s6)
   14d9c:	fff4041b          	addiw	s0,s0,-1
   14da0:	02045263          	bgez	s0,14dc4 <__call_exitprocs+0x8c>
   14da4:	08c0006f          	j	14e30 <__call_exitprocs+0xf8>
   14da8:	02040793          	addi	a5,s0,32
   14dac:	00379793          	slli	a5,a5,0x3
   14db0:	00fb07b3          	add	a5,s6,a5
   14db4:	1107b783          	ld	a5,272(a5)
   14db8:	00fb8a63          	beq	s7,a5,14dcc <__call_exitprocs+0x94>
   14dbc:	fff4041b          	addiw	s0,s0,-1
   14dc0:	07840863          	beq	s0,s8,14e30 <__call_exitprocs+0xf8>
   14dc4:	00040713          	mv	a4,s0
   14dc8:	fe0b90e3          	bnez	s7,14da8 <__call_exitprocs+0x70>
   14dcc:	008b2783          	lw	a5,8(s6)
   14dd0:	00371713          	slli	a4,a4,0x3
   14dd4:	00eb0733          	add	a4,s6,a4
   14dd8:	fff7879b          	addiw	a5,a5,-1
   14ddc:	01073683          	ld	a3,16(a4) # ffffffffffffe010 <_end+0xfffffffffffd7218>
   14de0:	0a878c63          	beq	a5,s0,14e98 <__call_exitprocs+0x160>
   14de4:	00073823          	sd	zero,16(a4)
   14de8:	fc068ae3          	beqz	a3,14dbc <__call_exitprocs+0x84>
   14dec:	310b2783          	lw	a5,784(s6)
   14df0:	0084963b          	sllw	a2,s1,s0
   14df4:	008b2c83          	lw	s9,8(s6)
   14df8:	00f677b3          	and	a5,a2,a5
   14dfc:	08078a63          	beqz	a5,14e90 <__call_exitprocs+0x158>
   14e00:	314b2783          	lw	a5,788(s6)
   14e04:	00f67633          	and	a2,a2,a5
   14e08:	08061c63          	bnez	a2,14ea0 <__call_exitprocs+0x168>
   14e0c:	11073583          	ld	a1,272(a4)
   14e10:	00090513          	mv	a0,s2
   14e14:	000680e7          	jalr	a3
   14e18:	008b2783          	lw	a5,8(s6)
   14e1c:	f79798e3          	bne	a5,s9,14d8c <__call_exitprocs+0x54>
   14e20:	000d3783          	ld	a5,0(s10)
   14e24:	f76794e3          	bne	a5,s6,14d8c <__call_exitprocs+0x54>
   14e28:	fff4041b          	addiw	s0,s0,-1
   14e2c:	f9841ce3          	bne	s0,s8,14dc4 <__call_exitprocs+0x8c>
   14e30:	02098463          	beqz	s3,14e58 <__call_exitprocs+0x120>
   14e34:	008b2783          	lw	a5,8(s6)
   14e38:	06079a63          	bnez	a5,14eac <__call_exitprocs+0x174>
   14e3c:	000b3783          	ld	a5,0(s6)
   14e40:	08078063          	beqz	a5,14ec0 <__call_exitprocs+0x188>
   14e44:	000b0513          	mv	a0,s6
   14e48:	00fd3023          	sd	a5,0(s10)
   14e4c:	f0dfb0ef          	jal	10d58 <free>
   14e50:	000d3b03          	ld	s6,0(s10)
   14e54:	f40b12e3          	bnez	s6,14d98 <__call_exitprocs+0x60>
   14e58:	05813083          	ld	ra,88(sp)
   14e5c:	05013403          	ld	s0,80(sp)
   14e60:	04813483          	ld	s1,72(sp)
   14e64:	04013903          	ld	s2,64(sp)
   14e68:	03813983          	ld	s3,56(sp)
   14e6c:	03013a03          	ld	s4,48(sp)
   14e70:	02813a83          	ld	s5,40(sp)
   14e74:	02013b03          	ld	s6,32(sp)
   14e78:	01813b83          	ld	s7,24(sp)
   14e7c:	01013c03          	ld	s8,16(sp)
   14e80:	00813c83          	ld	s9,8(sp)
   14e84:	00013d03          	ld	s10,0(sp)
   14e88:	06010113          	addi	sp,sp,96
   14e8c:	00008067          	ret
   14e90:	000680e7          	jalr	a3
   14e94:	f85ff06f          	j	14e18 <__call_exitprocs+0xe0>
   14e98:	008b2423          	sw	s0,8(s6)
   14e9c:	f4dff06f          	j	14de8 <__call_exitprocs+0xb0>
   14ea0:	11073503          	ld	a0,272(a4)
   14ea4:	000680e7          	jalr	a3
   14ea8:	f71ff06f          	j	14e18 <__call_exitprocs+0xe0>
   14eac:	000b3783          	ld	a5,0(s6)
   14eb0:	000b0d13          	mv	s10,s6
   14eb4:	00078b13          	mv	s6,a5
   14eb8:	ee0b10e3          	bnez	s6,14d98 <__call_exitprocs+0x60>
   14ebc:	f9dff06f          	j	14e58 <__call_exitprocs+0x120>
   14ec0:	00000793          	li	a5,0
   14ec4:	fedff06f          	j	14eb0 <__call_exitprocs+0x178>

0000000000014ec8 <quorem>:
   14ec8:	fc010113          	addi	sp,sp,-64
   14ecc:	03213023          	sd	s2,32(sp)
   14ed0:	01452783          	lw	a5,20(a0)
   14ed4:	0145a903          	lw	s2,20(a1)
   14ed8:	02113c23          	sd	ra,56(sp)
   14edc:	02813823          	sd	s0,48(sp)
   14ee0:	02913423          	sd	s1,40(sp)
   14ee4:	01313c23          	sd	s3,24(sp)
   14ee8:	01413823          	sd	s4,16(sp)
   14eec:	01513423          	sd	s5,8(sp)
   14ef0:	1b27ce63          	blt	a5,s2,150ac <quorem+0x1e4>
   14ef4:	fff9091b          	addiw	s2,s2,-1
   14ef8:	00090f13          	mv	t5,s2
   14efc:	002f1f13          	slli	t5,t5,0x2
   14f00:	01858413          	addi	s0,a1,24
   14f04:	01e409b3          	add	s3,s0,t5
   14f08:	01850a13          	addi	s4,a0,24
   14f0c:	01ea0f33          	add	t5,s4,t5
   14f10:	0009a783          	lw	a5,0(s3)
   14f14:	000f2483          	lw	s1,0(t5)
   14f18:	0017879b          	addiw	a5,a5,1
   14f1c:	02f4d4bb          	divuw	s1,s1,a5
   14f20:	0a048e63          	beqz	s1,14fdc <quorem+0x114>
   14f24:	00010337          	lui	t1,0x10
   14f28:	00040e93          	mv	t4,s0
   14f2c:	000a0e13          	mv	t3,s4
   14f30:	00000613          	li	a2,0
   14f34:	00000713          	li	a4,0
   14f38:	fff3031b          	addiw	t1,t1,-1
   14f3c:	004e8e93          	addi	t4,t4,4
   14f40:	ffcea803          	lw	a6,-4(t4)
   14f44:	000e2683          	lw	a3,0(t3)
   14f48:	004e0e13          	addi	t3,t3,4
   14f4c:	006878b3          	and	a7,a6,t1
   14f50:	029888bb          	mulw	a7,a7,s1
   14f54:	0108581b          	srliw	a6,a6,0x10
   14f58:	0066f7b3          	and	a5,a3,t1
   14f5c:	0106d69b          	srliw	a3,a3,0x10
   14f60:	0298083b          	mulw	a6,a6,s1
   14f64:	00c888bb          	addw	a7,a7,a2
   14f68:	0108d61b          	srliw	a2,a7,0x10
   14f6c:	0068f8b3          	and	a7,a7,t1
   14f70:	4117073b          	subw	a4,a4,a7
   14f74:	00f707bb          	addw	a5,a4,a5
   14f78:	4107d71b          	sraiw	a4,a5,0x10
   14f7c:	0067f7b3          	and	a5,a5,t1
   14f80:	00c8063b          	addw	a2,a6,a2
   14f84:	00667833          	and	a6,a2,t1
   14f88:	410686bb          	subw	a3,a3,a6
   14f8c:	00e6873b          	addw	a4,a3,a4
   14f90:	0107169b          	slliw	a3,a4,0x10
   14f94:	00f6e6b3          	or	a3,a3,a5
   14f98:	fede2e23          	sw	a3,-4(t3)
   14f9c:	0106561b          	srliw	a2,a2,0x10
   14fa0:	4107571b          	sraiw	a4,a4,0x10
   14fa4:	f9d9fce3          	bleu	t4,s3,14f3c <quorem+0x74>
   14fa8:	000f2783          	lw	a5,0(t5)
   14fac:	02079863          	bnez	a5,14fdc <quorem+0x114>
   14fb0:	ffcf0793          	addi	a5,t5,-4
   14fb4:	02fa7263          	bleu	a5,s4,14fd8 <quorem+0x110>
   14fb8:	ffcf2703          	lw	a4,-4(t5)
   14fbc:	00070863          	beqz	a4,14fcc <quorem+0x104>
   14fc0:	0180006f          	j	14fd8 <quorem+0x110>
   14fc4:	0007a703          	lw	a4,0(a5)
   14fc8:	00071863          	bnez	a4,14fd8 <quorem+0x110>
   14fcc:	ffc78793          	addi	a5,a5,-4
   14fd0:	fff9091b          	addiw	s2,s2,-1
   14fd4:	fefa68e3          	bltu	s4,a5,14fc4 <quorem+0xfc>
   14fd8:	01252a23          	sw	s2,20(a0)
   14fdc:	00050a93          	mv	s5,a0
   14fe0:	6dc030ef          	jal	186bc <__mcmp>
   14fe4:	0a054063          	bltz	a0,15084 <quorem+0x1bc>
   14fe8:	000105b7          	lui	a1,0x10
   14fec:	0014849b          	addiw	s1,s1,1
   14ff0:	000a0613          	mv	a2,s4
   14ff4:	00000793          	li	a5,0
   14ff8:	fff5859b          	addiw	a1,a1,-1
   14ffc:	00440413          	addi	s0,s0,4
   15000:	ffc42683          	lw	a3,-4(s0)
   15004:	00062703          	lw	a4,0(a2) # 2000 <_ftext-0xe000>
   15008:	00460613          	addi	a2,a2,4
   1500c:	00b6f833          	and	a6,a3,a1
   15010:	410787bb          	subw	a5,a5,a6
   15014:	00b77833          	and	a6,a4,a1
   15018:	010787bb          	addw	a5,a5,a6
   1501c:	0106d69b          	srliw	a3,a3,0x10
   15020:	0107571b          	srliw	a4,a4,0x10
   15024:	40d7073b          	subw	a4,a4,a3
   15028:	4107d69b          	sraiw	a3,a5,0x10
   1502c:	00d706bb          	addw	a3,a4,a3
   15030:	0106981b          	slliw	a6,a3,0x10
   15034:	00b7f733          	and	a4,a5,a1
   15038:	00e86733          	or	a4,a6,a4
   1503c:	fee62e23          	sw	a4,-4(a2)
   15040:	4106d79b          	sraiw	a5,a3,0x10
   15044:	fa89fce3          	bleu	s0,s3,14ffc <quorem+0x134>
   15048:	00291713          	slli	a4,s2,0x2
   1504c:	00ea0733          	add	a4,s4,a4
   15050:	00072783          	lw	a5,0(a4)
   15054:	02079863          	bnez	a5,15084 <quorem+0x1bc>
   15058:	ffc70793          	addi	a5,a4,-4
   1505c:	02fa7263          	bleu	a5,s4,15080 <quorem+0x1b8>
   15060:	ffc72703          	lw	a4,-4(a4)
   15064:	00070863          	beqz	a4,15074 <quorem+0x1ac>
   15068:	0180006f          	j	15080 <quorem+0x1b8>
   1506c:	0007a703          	lw	a4,0(a5)
   15070:	00071863          	bnez	a4,15080 <quorem+0x1b8>
   15074:	ffc78793          	addi	a5,a5,-4
   15078:	fff9091b          	addiw	s2,s2,-1
   1507c:	fefa68e3          	bltu	s4,a5,1506c <quorem+0x1a4>
   15080:	012aaa23          	sw	s2,20(s5)
   15084:	00048513          	mv	a0,s1
   15088:	03813083          	ld	ra,56(sp)
   1508c:	03013403          	ld	s0,48(sp)
   15090:	02813483          	ld	s1,40(sp)
   15094:	02013903          	ld	s2,32(sp)
   15098:	01813983          	ld	s3,24(sp)
   1509c:	01013a03          	ld	s4,16(sp)
   150a0:	00813a83          	ld	s5,8(sp)
   150a4:	04010113          	addi	sp,sp,64
   150a8:	00008067          	ret
   150ac:	00000513          	li	a0,0
   150b0:	fd9ff06f          	j	15088 <quorem+0x1c0>

00000000000150b4 <_dtoa_r>:
   150b4:	e20585d3          	fmv.x.d	a1,fa1
   150b8:	06053883          	ld	a7,96(a0)
   150bc:	f3010113          	addi	sp,sp,-208
   150c0:	0c813023          	sd	s0,192(sp)
   150c4:	0a913c23          	sd	s1,184(sp)
   150c8:	0b313423          	sd	s3,168(sp)
   150cc:	09613823          	sd	s6,144(sp)
   150d0:	07913c23          	sd	s9,120(sp)
   150d4:	07a13823          	sd	s10,112(sp)
   150d8:	0c113423          	sd	ra,200(sp)
   150dc:	0b213823          	sd	s2,176(sp)
   150e0:	0b413023          	sd	s4,160(sp)
   150e4:	09513c23          	sd	s5,152(sp)
   150e8:	09713423          	sd	s7,136(sp)
   150ec:	09813023          	sd	s8,128(sp)
   150f0:	07b13423          	sd	s11,104(sp)
   150f4:	00e13023          	sd	a4,0(sp)
   150f8:	00050413          	mv	s0,a0
   150fc:	00060993          	mv	s3,a2
   15100:	00068c93          	mv	s9,a3
   15104:	00078493          	mv	s1,a5
   15108:	00080b13          	mv	s6,a6
   1510c:	00058d13          	mv	s10,a1
   15110:	02088263          	beqz	a7,15134 <_dtoa_r+0x80>
   15114:	06852603          	lw	a2,104(a0)
   15118:	00100693          	li	a3,1
   1511c:	00088593          	mv	a1,a7
   15120:	00c696bb          	sllw	a3,a3,a2
   15124:	00c8a423          	sw	a2,8(a7)
   15128:	00d8a623          	sw	a3,12(a7)
   1512c:	545020ef          	jal	17e70 <_Bfree>
   15130:	06043023          	sd	zero,96(s0)
   15134:	420d5913          	srai	s2,s10,0x20
   15138:	0c094063          	bltz	s2,151f8 <_dtoa_r+0x144>
   1513c:	0004a023          	sw	zero,0(s1)
   15140:	7ff007b7          	lui	a5,0x7ff00
   15144:	00f976b3          	and	a3,s2,a5
   15148:	06f68a63          	beq	a3,a5,151bc <_dtoa_r+0x108>
   1514c:	f20007d3          	fmv.d.x	fa5,zero
   15150:	f20d0753          	fmv.d.x	fa4,s10
   15154:	a2f727d3          	feq.d	a5,fa4,fa5
   15158:	0c078463          	beqz	a5,15220 <_dtoa_r+0x16c>
   1515c:	00013703          	ld	a4,0(sp)
   15160:	00100793          	li	a5,1
   15164:	00f72023          	sw	a5,0(a4)
   15168:	480b0a63          	beqz	s6,155fc <_dtoa_r+0x548>
   1516c:	000227b7          	lui	a5,0x22
   15170:	d3178793          	addi	a5,a5,-719 # 21d31 <zeroes.4123+0x6c9>
   15174:	00022537          	lui	a0,0x22
   15178:	00fb3023          	sd	a5,0(s6)
   1517c:	d3050513          	addi	a0,a0,-720 # 21d30 <zeroes.4123+0x6c8>
   15180:	0c813083          	ld	ra,200(sp)
   15184:	0c013403          	ld	s0,192(sp)
   15188:	0b813483          	ld	s1,184(sp)
   1518c:	0b013903          	ld	s2,176(sp)
   15190:	0a813983          	ld	s3,168(sp)
   15194:	0a013a03          	ld	s4,160(sp)
   15198:	09813a83          	ld	s5,152(sp)
   1519c:	09013b03          	ld	s6,144(sp)
   151a0:	08813b83          	ld	s7,136(sp)
   151a4:	08013c03          	ld	s8,128(sp)
   151a8:	07813c83          	ld	s9,120(sp)
   151ac:	07013d03          	ld	s10,112(sp)
   151b0:	06813d83          	ld	s11,104(sp)
   151b4:	0d010113          	addi	sp,sp,208
   151b8:	00008067          	ret
   151bc:	00013703          	ld	a4,0(sp)
   151c0:	000027b7          	lui	a5,0x2
   151c4:	70f7879b          	addiw	a5,a5,1807
   151c8:	00f72023          	sw	a5,0(a4)
   151cc:	00cd1793          	slli	a5,s10,0xc
   151d0:	3e079863          	bnez	a5,155c0 <_dtoa_r+0x50c>
   151d4:	00022537          	lui	a0,0x22
   151d8:	d4050513          	addi	a0,a0,-704 # 21d40 <zeroes.4123+0x6d8>
   151dc:	fa0b02e3          	beqz	s6,15180 <_dtoa_r+0xcc>
   151e0:	00354703          	lbu	a4,3(a0)
   151e4:	00350793          	addi	a5,a0,3
   151e8:	00070463          	beqz	a4,151f0 <_dtoa_r+0x13c>
   151ec:	00850793          	addi	a5,a0,8
   151f0:	00fb3023          	sd	a5,0(s6)
   151f4:	f8dff06f          	j	15180 <_dtoa_r+0xcc>
   151f8:	800007b7          	lui	a5,0x80000
   151fc:	fff7c793          	not	a5,a5
   15200:	020d1713          	slli	a4,s10,0x20
   15204:	00f97933          	and	s2,s2,a5
   15208:	02091793          	slli	a5,s2,0x20
   1520c:	02075713          	srli	a4,a4,0x20
   15210:	00100693          	li	a3,1
   15214:	00d4a023          	sw	a3,0(s1)
   15218:	00f76d33          	or	s10,a4,a5
   1521c:	f25ff06f          	j	15140 <_dtoa_r+0x8c>
   15220:	f20d05d3          	fmv.d.x	fa1,s10
   15224:	05810693          	addi	a3,sp,88
   15228:	05c10613          	addi	a2,sp,92
   1522c:	00040513          	mv	a0,s0
   15230:	0cd030ef          	jal	18afc <__d2b>
   15234:	02a13023          	sd	a0,32(sp)
   15238:	0149581b          	srliw	a6,s2,0x14
   1523c:	38081863          	bnez	a6,155cc <_dtoa_r+0x518>
   15240:	05812603          	lw	a2,88(sp)
   15244:	05c12803          	lw	a6,92(sp)
   15248:	02000793          	li	a5,32
   1524c:	0106083b          	addw	a6,a2,a6
   15250:	4328069b          	addiw	a3,a6,1074
   15254:	6ad7de63          	ble	a3,a5,15910 <_dtoa_r+0x85c>
   15258:	04000593          	li	a1,64
   1525c:	4128049b          	addiw	s1,a6,1042
   15260:	000d079b          	sext.w	a5,s10
   15264:	40d585bb          	subw	a1,a1,a3
   15268:	0097d7bb          	srlw	a5,a5,s1
   1526c:	00b914bb          	sllw	s1,s2,a1
   15270:	0097e4b3          	or	s1,a5,s1
   15274:	d21487d3          	fcvt.d.wu	fa5,s1
   15278:	fe1006b7          	lui	a3,0xfe100
   1527c:	fff8081b          	addiw	a6,a6,-1
   15280:	e20784d3          	fmv.x.d	s1,fa5
   15284:	00100913          	li	s2,1
   15288:	4204d793          	srai	a5,s1,0x20
   1528c:	00d787bb          	addw	a5,a5,a3
   15290:	02049493          	slli	s1,s1,0x20
   15294:	02079793          	slli	a5,a5,0x20
   15298:	0204d493          	srli	s1,s1,0x20
   1529c:	00f4e4b3          	or	s1,s1,a5
   152a0:	000247b7          	lui	a5,0x24
   152a4:	4887b787          	fld	fa5,1160(a5) # 24488 <mask+0x8>
   152a8:	f2048753          	fmv.d.x	fa4,s1
   152ac:	000247b7          	lui	a5,0x24
   152b0:	0af77653          	fsub.d	fa2,fa4,fa5
   152b4:	4987b787          	fld	fa5,1176(a5) # 24498 <mask+0x18>
   152b8:	000247b7          	lui	a5,0x24
   152bc:	4907b687          	fld	fa3,1168(a5) # 24490 <mask+0x10>
   152c0:	000247b7          	lui	a5,0x24
   152c4:	d2080753          	fcvt.d.w	fa4,a6
   152c8:	7ad677c3          	fmadd.d	fa5,fa2,fa3,fa5
   152cc:	4a07b687          	fld	fa3,1184(a5) # 244a0 <mask+0x20>
   152d0:	7ad777c3          	fmadd.d	fa5,fa4,fa3,fa5
   152d4:	f2000753          	fmv.d.x	fa4,zero
   152d8:	a2e797d3          	flt.d	a5,fa5,fa4
   152dc:	c2079bd3          	fcvt.w.d	s7,fa5,rtz
   152e0:	5e079e63          	bnez	a5,158dc <_dtoa_r+0x828>
   152e4:	00100793          	li	a5,1
   152e8:	02f12823          	sw	a5,48(sp)
   152ec:	01600793          	li	a5,22
   152f0:	0377e663          	bltu	a5,s7,1531c <_dtoa_r+0x268>
   152f4:	000217b7          	lui	a5,0x21
   152f8:	003b9693          	slli	a3,s7,0x3
   152fc:	e9878793          	addi	a5,a5,-360 # 20e98 <__mprec_tens>
   15300:	00f687b3          	add	a5,a3,a5
   15304:	0007b787          	fld	fa5,0(a5)
   15308:	f20d0753          	fmv.d.x	fa4,s10
   1530c:	a2f717d3          	flt.d	a5,fa4,fa5
   15310:	60078863          	beqz	a5,15920 <_dtoa_r+0x86c>
   15314:	fffb8b9b          	addiw	s7,s7,-1
   15318:	02012823          	sw	zero,48(sp)
   1531c:	4106083b          	subw	a6,a2,a6
   15320:	fff80d9b          	addiw	s11,a6,-1
   15324:	00000813          	li	a6,0
   15328:	2e0dc063          	bltz	s11,15608 <_dtoa_r+0x554>
   1532c:	5c0bc263          	bltz	s7,158f0 <_dtoa_r+0x83c>
   15330:	017d8dbb          	addw	s11,s11,s7
   15334:	03712423          	sw	s7,40(sp)
   15338:	00000c13          	li	s8,0
   1533c:	00900793          	li	a5,9
